
kernel/kernel：     文件格式 elf64-littleriscv


Disassembly of section .text:

0000000080000000 <_entry>:
    80000000:	0000a117          	auipc	sp,0xa
    80000004:	80010113          	addi	sp,sp,-2048 # 80009800 <stack0>
    80000008:	6505                	lui	a0,0x1
    8000000a:	f14025f3          	csrr	a1,mhartid
    8000000e:	0585                	addi	a1,a1,1
    80000010:	02b50533          	mul	a0,a0,a1
    80000014:	912a                	add	sp,sp,a0
    80000016:	070000ef          	jal	ra,80000086 <start>

000000008000001a <junk>:
    8000001a:	a001                	j	8000001a <junk>

000000008000001c <timerinit>:
// which arrive at timervec in kernelvec.S,
// which turns them into software interrupts for
// devintr() in trap.c.
void
timerinit()
{
    8000001c:	1141                	addi	sp,sp,-16
    8000001e:	e422                	sd	s0,8(sp)
    80000020:	0800                	addi	s0,sp,16
// which hart (core) is this?
static inline uint64
r_mhartid()
{
  uint64 x;
  asm volatile("csrr %0, mhartid" : "=r" (x) );
    80000022:	f14027f3          	csrr	a5,mhartid
  // each CPU has a separate source of timer interrupts.
  int id = r_mhartid();

  // ask the CLINT for a timer interrupt.
  int interval = 1000000; // cycles; about 1/10th second in qemu.
  *(uint64*)CLINT_MTIMECMP(id) = *(uint64*)CLINT_MTIME + interval;
    80000026:	0037969b          	slliw	a3,a5,0x3
    8000002a:	02004737          	lui	a4,0x2004
    8000002e:	96ba                	add	a3,a3,a4
    80000030:	0200c737          	lui	a4,0x200c
    80000034:	ff873603          	ld	a2,-8(a4) # 200bff8 <_entry-0x7dff4008>
    80000038:	000f4737          	lui	a4,0xf4
    8000003c:	24070713          	addi	a4,a4,576 # f4240 <_entry-0x7ff0bdc0>
    80000040:	963a                	add	a2,a2,a4
    80000042:	e290                	sd	a2,0(a3)

  // prepare information in scratch[] for timervec.
  // scratch[0..3] : space for timervec to save registers.
  // scratch[4] : address of CLINT MTIMECMP register.
  // scratch[5] : desired interval (in cycles) between timer interrupts.
  uint64 *scratch = &mscratch0[32 * id];
    80000044:	0057979b          	slliw	a5,a5,0x5
    80000048:	078e                	slli	a5,a5,0x3
    8000004a:	00009617          	auipc	a2,0x9
    8000004e:	fb660613          	addi	a2,a2,-74 # 80009000 <mscratch0>
    80000052:	97b2                	add	a5,a5,a2
  scratch[4] = CLINT_MTIMECMP(id);
    80000054:	f394                	sd	a3,32(a5)
  scratch[5] = interval;
    80000056:	f798                	sd	a4,40(a5)
}

static inline void 
w_mscratch(uint64 x)
{
  asm volatile("csrw mscratch, %0" : : "r" (x));
    80000058:	34079073          	csrw	mscratch,a5
  asm volatile("csrw mtvec, %0" : : "r" (x));
    8000005c:	00006797          	auipc	a5,0x6
    80000060:	b9478793          	addi	a5,a5,-1132 # 80005bf0 <timervec>
    80000064:	30579073          	csrw	mtvec,a5
  asm volatile("csrr %0, mstatus" : "=r" (x) );
    80000068:	300027f3          	csrr	a5,mstatus

  // set the machine-mode trap handler.
  w_mtvec((uint64)timervec);

  // enable machine-mode interrupts.
  w_mstatus(r_mstatus() | MSTATUS_MIE);
    8000006c:	0087e793          	ori	a5,a5,8
  asm volatile("csrw mstatus, %0" : : "r" (x));
    80000070:	30079073          	csrw	mstatus,a5
  asm volatile("csrr %0, mie" : "=r" (x) );
    80000074:	304027f3          	csrr	a5,mie

  // enable machine-mode timer interrupts.
  w_mie(r_mie() | MIE_MTIE);
    80000078:	0807e793          	ori	a5,a5,128
  asm volatile("csrw mie, %0" : : "r" (x));
    8000007c:	30479073          	csrw	mie,a5
}
    80000080:	6422                	ld	s0,8(sp)
    80000082:	0141                	addi	sp,sp,16
    80000084:	8082                	ret

0000000080000086 <start>:
{
    80000086:	1141                	addi	sp,sp,-16
    80000088:	e406                	sd	ra,8(sp)
    8000008a:	e022                	sd	s0,0(sp)
    8000008c:	0800                	addi	s0,sp,16
  asm volatile("csrr %0, mstatus" : "=r" (x) );
    8000008e:	300027f3          	csrr	a5,mstatus
  x &= ~MSTATUS_MPP_MASK;
    80000092:	7779                	lui	a4,0xffffe
    80000094:	7ff70713          	addi	a4,a4,2047 # ffffffffffffe7ff <ticks+0xffffffff7ffd57d7>
    80000098:	8ff9                	and	a5,a5,a4
  x |= MSTATUS_MPP_S;
    8000009a:	6705                	lui	a4,0x1
    8000009c:	80070713          	addi	a4,a4,-2048 # 800 <_entry-0x7ffff800>
    800000a0:	8fd9                	or	a5,a5,a4
  asm volatile("csrw mstatus, %0" : : "r" (x));
    800000a2:	30079073          	csrw	mstatus,a5
  asm volatile("csrw mepc, %0" : : "r" (x));
    800000a6:	00001797          	auipc	a5,0x1
    800000aa:	c8a78793          	addi	a5,a5,-886 # 80000d30 <main>
    800000ae:	34179073          	csrw	mepc,a5
  asm volatile("csrw satp, %0" : : "r" (x));
    800000b2:	4781                	li	a5,0
    800000b4:	18079073          	csrw	satp,a5
  asm volatile("csrw medeleg, %0" : : "r" (x));
    800000b8:	67c1                	lui	a5,0x10
    800000ba:	17fd                	addi	a5,a5,-1
    800000bc:	30279073          	csrw	medeleg,a5
  asm volatile("csrw mideleg, %0" : : "r" (x));
    800000c0:	30379073          	csrw	mideleg,a5
  timerinit();
    800000c4:	00000097          	auipc	ra,0x0
    800000c8:	f58080e7          	jalr	-168(ra) # 8000001c <timerinit>
  asm volatile("csrr %0, mhartid" : "=r" (x) );
    800000cc:	f14027f3          	csrr	a5,mhartid
  w_tp(id);
    800000d0:	2781                	sext.w	a5,a5
}

static inline void 
w_tp(uint64 x)
{
  asm volatile("mv tp, %0" : : "r" (x));
    800000d2:	823e                	mv	tp,a5
  asm volatile("mret");
    800000d4:	30200073          	mret
}
    800000d8:	60a2                	ld	ra,8(sp)
    800000da:	6402                	ld	s0,0(sp)
    800000dc:	0141                	addi	sp,sp,16
    800000de:	8082                	ret

00000000800000e0 <consoleread>:
// user_dist indicates whether dst is a user
// or kernel address.
//
int
consoleread(int user_dst, uint64 dst, int n)
{
    800000e0:	7159                	addi	sp,sp,-112
    800000e2:	f486                	sd	ra,104(sp)
    800000e4:	f0a2                	sd	s0,96(sp)
    800000e6:	eca6                	sd	s1,88(sp)
    800000e8:	e8ca                	sd	s2,80(sp)
    800000ea:	e4ce                	sd	s3,72(sp)
    800000ec:	e0d2                	sd	s4,64(sp)
    800000ee:	fc56                	sd	s5,56(sp)
    800000f0:	f85a                	sd	s6,48(sp)
    800000f2:	f45e                	sd	s7,40(sp)
    800000f4:	f062                	sd	s8,32(sp)
    800000f6:	ec66                	sd	s9,24(sp)
    800000f8:	e86a                	sd	s10,16(sp)
    800000fa:	1880                	addi	s0,sp,112
    800000fc:	8aaa                	mv	s5,a0
    800000fe:	8a2e                	mv	s4,a1
    80000100:	89b2                	mv	s3,a2
  uint target;
  int c;
  char cbuf;

  target = n;
    80000102:	00060b1b          	sext.w	s6,a2
  acquire(&cons.lock);
    80000106:	00011517          	auipc	a0,0x11
    8000010a:	6fa50513          	addi	a0,a0,1786 # 80011800 <cons>
    8000010e:	00001097          	auipc	ra,0x1
    80000112:	9b0080e7          	jalr	-1616(ra) # 80000abe <acquire>
  while(n > 0){
    // wait until interrupt handler has put some
    // input into cons.buffer.
    while(cons.r == cons.w){
    80000116:	00011497          	auipc	s1,0x11
    8000011a:	6ea48493          	addi	s1,s1,1770 # 80011800 <cons>
      if(myproc()->killed){
        release(&cons.lock);
        return -1;
      }
      sleep(&cons.r, &cons.lock);
    8000011e:	00011917          	auipc	s2,0x11
    80000122:	77a90913          	addi	s2,s2,1914 # 80011898 <cons+0x98>
    }

    c = cons.buf[cons.r++ % INPUT_BUF];

    if(c == C('D')){  // end-of-file
    80000126:	4b91                	li	s7,4
      break;
    }

    // copy the input byte to the user-space buffer.
    cbuf = c;
    if(either_copyout(user_dst, dst, &cbuf, 1) == -1)
    80000128:	5c7d                	li	s8,-1
      break;

    dst++;
    --n;

    if(c == '\n'){
    8000012a:	4ca9                	li	s9,10
  while(n > 0){
    8000012c:	07305863          	blez	s3,8000019c <consoleread+0xbc>
    while(cons.r == cons.w){
    80000130:	0984a783          	lw	a5,152(s1)
    80000134:	09c4a703          	lw	a4,156(s1)
    80000138:	02f71463          	bne	a4,a5,80000160 <consoleread+0x80>
      if(myproc()->killed){
    8000013c:	00001097          	auipc	ra,0x1
    80000140:	6e2080e7          	jalr	1762(ra) # 8000181e <myproc>
    80000144:	591c                	lw	a5,48(a0)
    80000146:	e7b5                	bnez	a5,800001b2 <consoleread+0xd2>
      sleep(&cons.r, &cons.lock);
    80000148:	85a6                	mv	a1,s1
    8000014a:	854a                	mv	a0,s2
    8000014c:	00002097          	auipc	ra,0x2
    80000150:	edc080e7          	jalr	-292(ra) # 80002028 <sleep>
    while(cons.r == cons.w){
    80000154:	0984a783          	lw	a5,152(s1)
    80000158:	09c4a703          	lw	a4,156(s1)
    8000015c:	fef700e3          	beq	a4,a5,8000013c <consoleread+0x5c>
    c = cons.buf[cons.r++ % INPUT_BUF];
    80000160:	0017871b          	addiw	a4,a5,1
    80000164:	08e4ac23          	sw	a4,152(s1)
    80000168:	07f7f713          	andi	a4,a5,127
    8000016c:	9726                	add	a4,a4,s1
    8000016e:	01874703          	lbu	a4,24(a4)
    80000172:	00070d1b          	sext.w	s10,a4
    if(c == C('D')){  // end-of-file
    80000176:	077d0563          	beq	s10,s7,800001e0 <consoleread+0x100>
    cbuf = c;
    8000017a:	f8e40fa3          	sb	a4,-97(s0)
    if(either_copyout(user_dst, dst, &cbuf, 1) == -1)
    8000017e:	4685                	li	a3,1
    80000180:	f9f40613          	addi	a2,s0,-97
    80000184:	85d2                	mv	a1,s4
    80000186:	8556                	mv	a0,s5
    80000188:	00002097          	auipc	ra,0x2
    8000018c:	0c0080e7          	jalr	192(ra) # 80002248 <either_copyout>
    80000190:	01850663          	beq	a0,s8,8000019c <consoleread+0xbc>
    dst++;
    80000194:	0a05                	addi	s4,s4,1
    --n;
    80000196:	39fd                	addiw	s3,s3,-1
    if(c == '\n'){
    80000198:	f99d1ae3          	bne	s10,s9,8000012c <consoleread+0x4c>
      // a whole line has arrived, return to
      // the user-level read().
      break;
    }
  }
  release(&cons.lock);
    8000019c:	00011517          	auipc	a0,0x11
    800001a0:	66450513          	addi	a0,a0,1636 # 80011800 <cons>
    800001a4:	00001097          	auipc	ra,0x1
    800001a8:	982080e7          	jalr	-1662(ra) # 80000b26 <release>

  return target - n;
    800001ac:	413b053b          	subw	a0,s6,s3
    800001b0:	a811                	j	800001c4 <consoleread+0xe4>
        release(&cons.lock);
    800001b2:	00011517          	auipc	a0,0x11
    800001b6:	64e50513          	addi	a0,a0,1614 # 80011800 <cons>
    800001ba:	00001097          	auipc	ra,0x1
    800001be:	96c080e7          	jalr	-1684(ra) # 80000b26 <release>
        return -1;
    800001c2:	557d                	li	a0,-1
}
    800001c4:	70a6                	ld	ra,104(sp)
    800001c6:	7406                	ld	s0,96(sp)
    800001c8:	64e6                	ld	s1,88(sp)
    800001ca:	6946                	ld	s2,80(sp)
    800001cc:	69a6                	ld	s3,72(sp)
    800001ce:	6a06                	ld	s4,64(sp)
    800001d0:	7ae2                	ld	s5,56(sp)
    800001d2:	7b42                	ld	s6,48(sp)
    800001d4:	7ba2                	ld	s7,40(sp)
    800001d6:	7c02                	ld	s8,32(sp)
    800001d8:	6ce2                	ld	s9,24(sp)
    800001da:	6d42                	ld	s10,16(sp)
    800001dc:	6165                	addi	sp,sp,112
    800001de:	8082                	ret
      if(n < target){
    800001e0:	0009871b          	sext.w	a4,s3
    800001e4:	fb677ce3          	bgeu	a4,s6,8000019c <consoleread+0xbc>
        cons.r--;
    800001e8:	00011717          	auipc	a4,0x11
    800001ec:	6af72823          	sw	a5,1712(a4) # 80011898 <cons+0x98>
    800001f0:	b775                	j	8000019c <consoleread+0xbc>

00000000800001f2 <consputc>:
  if(panicked){
    800001f2:	00029797          	auipc	a5,0x29
    800001f6:	e0e7a783          	lw	a5,-498(a5) # 80029000 <panicked>
    800001fa:	c391                	beqz	a5,800001fe <consputc+0xc>
    for(;;)
    800001fc:	a001                	j	800001fc <consputc+0xa>
{
    800001fe:	1141                	addi	sp,sp,-16
    80000200:	e406                	sd	ra,8(sp)
    80000202:	e022                	sd	s0,0(sp)
    80000204:	0800                	addi	s0,sp,16
  if(c == BACKSPACE){
    80000206:	10000793          	li	a5,256
    8000020a:	00f50a63          	beq	a0,a5,8000021e <consputc+0x2c>
    uartputc(c);
    8000020e:	00000097          	auipc	ra,0x0
    80000212:	5cc080e7          	jalr	1484(ra) # 800007da <uartputc>
}
    80000216:	60a2                	ld	ra,8(sp)
    80000218:	6402                	ld	s0,0(sp)
    8000021a:	0141                	addi	sp,sp,16
    8000021c:	8082                	ret
    uartputc('\b'); uartputc(' '); uartputc('\b');
    8000021e:	4521                	li	a0,8
    80000220:	00000097          	auipc	ra,0x0
    80000224:	5ba080e7          	jalr	1466(ra) # 800007da <uartputc>
    80000228:	02000513          	li	a0,32
    8000022c:	00000097          	auipc	ra,0x0
    80000230:	5ae080e7          	jalr	1454(ra) # 800007da <uartputc>
    80000234:	4521                	li	a0,8
    80000236:	00000097          	auipc	ra,0x0
    8000023a:	5a4080e7          	jalr	1444(ra) # 800007da <uartputc>
    8000023e:	bfe1                	j	80000216 <consputc+0x24>

0000000080000240 <consolewrite>:
{
    80000240:	715d                	addi	sp,sp,-80
    80000242:	e486                	sd	ra,72(sp)
    80000244:	e0a2                	sd	s0,64(sp)
    80000246:	fc26                	sd	s1,56(sp)
    80000248:	f84a                	sd	s2,48(sp)
    8000024a:	f44e                	sd	s3,40(sp)
    8000024c:	f052                	sd	s4,32(sp)
    8000024e:	ec56                	sd	s5,24(sp)
    80000250:	0880                	addi	s0,sp,80
    80000252:	89aa                	mv	s3,a0
    80000254:	84ae                	mv	s1,a1
    80000256:	8ab2                	mv	s5,a2
  acquire(&cons.lock);
    80000258:	00011517          	auipc	a0,0x11
    8000025c:	5a850513          	addi	a0,a0,1448 # 80011800 <cons>
    80000260:	00001097          	auipc	ra,0x1
    80000264:	85e080e7          	jalr	-1954(ra) # 80000abe <acquire>
  for(i = 0; i < n; i++){
    80000268:	03505e63          	blez	s5,800002a4 <consolewrite+0x64>
    8000026c:	00148913          	addi	s2,s1,1
    80000270:	fffa879b          	addiw	a5,s5,-1
    80000274:	1782                	slli	a5,a5,0x20
    80000276:	9381                	srli	a5,a5,0x20
    80000278:	993e                	add	s2,s2,a5
    if(either_copyin(&c, user_src, src+i, 1) == -1)
    8000027a:	5a7d                	li	s4,-1
    8000027c:	4685                	li	a3,1
    8000027e:	8626                	mv	a2,s1
    80000280:	85ce                	mv	a1,s3
    80000282:	fbf40513          	addi	a0,s0,-65
    80000286:	00002097          	auipc	ra,0x2
    8000028a:	018080e7          	jalr	24(ra) # 8000229e <either_copyin>
    8000028e:	01450b63          	beq	a0,s4,800002a4 <consolewrite+0x64>
    consputc(c);
    80000292:	fbf44503          	lbu	a0,-65(s0)
    80000296:	00000097          	auipc	ra,0x0
    8000029a:	f5c080e7          	jalr	-164(ra) # 800001f2 <consputc>
  for(i = 0; i < n; i++){
    8000029e:	0485                	addi	s1,s1,1
    800002a0:	fd249ee3          	bne	s1,s2,8000027c <consolewrite+0x3c>
  release(&cons.lock);
    800002a4:	00011517          	auipc	a0,0x11
    800002a8:	55c50513          	addi	a0,a0,1372 # 80011800 <cons>
    800002ac:	00001097          	auipc	ra,0x1
    800002b0:	87a080e7          	jalr	-1926(ra) # 80000b26 <release>
}
    800002b4:	8556                	mv	a0,s5
    800002b6:	60a6                	ld	ra,72(sp)
    800002b8:	6406                	ld	s0,64(sp)
    800002ba:	74e2                	ld	s1,56(sp)
    800002bc:	7942                	ld	s2,48(sp)
    800002be:	79a2                	ld	s3,40(sp)
    800002c0:	7a02                	ld	s4,32(sp)
    800002c2:	6ae2                	ld	s5,24(sp)
    800002c4:	6161                	addi	sp,sp,80
    800002c6:	8082                	ret

00000000800002c8 <consoleintr>:
// do erase/kill processing, append to cons.buf,
// wake up consoleread() if a whole line has arrived.
//
void
consoleintr(int c)
{
    800002c8:	1101                	addi	sp,sp,-32
    800002ca:	ec06                	sd	ra,24(sp)
    800002cc:	e822                	sd	s0,16(sp)
    800002ce:	e426                	sd	s1,8(sp)
    800002d0:	e04a                	sd	s2,0(sp)
    800002d2:	1000                	addi	s0,sp,32
    800002d4:	84aa                	mv	s1,a0
  acquire(&cons.lock);
    800002d6:	00011517          	auipc	a0,0x11
    800002da:	52a50513          	addi	a0,a0,1322 # 80011800 <cons>
    800002de:	00000097          	auipc	ra,0x0
    800002e2:	7e0080e7          	jalr	2016(ra) # 80000abe <acquire>

  switch(c){
    800002e6:	47d5                	li	a5,21
    800002e8:	0af48663          	beq	s1,a5,80000394 <consoleintr+0xcc>
    800002ec:	0297ca63          	blt	a5,s1,80000320 <consoleintr+0x58>
    800002f0:	47a1                	li	a5,8
    800002f2:	0ef48763          	beq	s1,a5,800003e0 <consoleintr+0x118>
    800002f6:	47c1                	li	a5,16
    800002f8:	10f49a63          	bne	s1,a5,8000040c <consoleintr+0x144>
  case C('P'):  // Print process list.
    procdump();
    800002fc:	00002097          	auipc	ra,0x2
    80000300:	ff8080e7          	jalr	-8(ra) # 800022f4 <procdump>
      }
    }
    break;
  }
  
  release(&cons.lock);
    80000304:	00011517          	auipc	a0,0x11
    80000308:	4fc50513          	addi	a0,a0,1276 # 80011800 <cons>
    8000030c:	00001097          	auipc	ra,0x1
    80000310:	81a080e7          	jalr	-2022(ra) # 80000b26 <release>
}
    80000314:	60e2                	ld	ra,24(sp)
    80000316:	6442                	ld	s0,16(sp)
    80000318:	64a2                	ld	s1,8(sp)
    8000031a:	6902                	ld	s2,0(sp)
    8000031c:	6105                	addi	sp,sp,32
    8000031e:	8082                	ret
  switch(c){
    80000320:	07f00793          	li	a5,127
    80000324:	0af48e63          	beq	s1,a5,800003e0 <consoleintr+0x118>
    if(c != 0 && cons.e-cons.r < INPUT_BUF){
    80000328:	00011717          	auipc	a4,0x11
    8000032c:	4d870713          	addi	a4,a4,1240 # 80011800 <cons>
    80000330:	0a072783          	lw	a5,160(a4)
    80000334:	09872703          	lw	a4,152(a4)
    80000338:	9f99                	subw	a5,a5,a4
    8000033a:	07f00713          	li	a4,127
    8000033e:	fcf763e3          	bltu	a4,a5,80000304 <consoleintr+0x3c>
      c = (c == '\r') ? '\n' : c;
    80000342:	47b5                	li	a5,13
    80000344:	0cf48763          	beq	s1,a5,80000412 <consoleintr+0x14a>
      consputc(c);
    80000348:	8526                	mv	a0,s1
    8000034a:	00000097          	auipc	ra,0x0
    8000034e:	ea8080e7          	jalr	-344(ra) # 800001f2 <consputc>
      cons.buf[cons.e++ % INPUT_BUF] = c;
    80000352:	00011797          	auipc	a5,0x11
    80000356:	4ae78793          	addi	a5,a5,1198 # 80011800 <cons>
    8000035a:	0a07a703          	lw	a4,160(a5)
    8000035e:	0017069b          	addiw	a3,a4,1
    80000362:	0006861b          	sext.w	a2,a3
    80000366:	0ad7a023          	sw	a3,160(a5)
    8000036a:	07f77713          	andi	a4,a4,127
    8000036e:	97ba                	add	a5,a5,a4
    80000370:	00978c23          	sb	s1,24(a5)
      if(c == '\n' || c == C('D') || cons.e == cons.r+INPUT_BUF){
    80000374:	47a9                	li	a5,10
    80000376:	0cf48563          	beq	s1,a5,80000440 <consoleintr+0x178>
    8000037a:	4791                	li	a5,4
    8000037c:	0cf48263          	beq	s1,a5,80000440 <consoleintr+0x178>
    80000380:	00011797          	auipc	a5,0x11
    80000384:	5187a783          	lw	a5,1304(a5) # 80011898 <cons+0x98>
    80000388:	0807879b          	addiw	a5,a5,128
    8000038c:	f6f61ce3          	bne	a2,a5,80000304 <consoleintr+0x3c>
      cons.buf[cons.e++ % INPUT_BUF] = c;
    80000390:	863e                	mv	a2,a5
    80000392:	a07d                	j	80000440 <consoleintr+0x178>
    while(cons.e != cons.w &&
    80000394:	00011717          	auipc	a4,0x11
    80000398:	46c70713          	addi	a4,a4,1132 # 80011800 <cons>
    8000039c:	0a072783          	lw	a5,160(a4)
    800003a0:	09c72703          	lw	a4,156(a4)
          cons.buf[(cons.e-1) % INPUT_BUF] != '\n'){
    800003a4:	00011497          	auipc	s1,0x11
    800003a8:	45c48493          	addi	s1,s1,1116 # 80011800 <cons>
    while(cons.e != cons.w &&
    800003ac:	4929                	li	s2,10
    800003ae:	f4f70be3          	beq	a4,a5,80000304 <consoleintr+0x3c>
          cons.buf[(cons.e-1) % INPUT_BUF] != '\n'){
    800003b2:	37fd                	addiw	a5,a5,-1
    800003b4:	07f7f713          	andi	a4,a5,127
    800003b8:	9726                	add	a4,a4,s1
    while(cons.e != cons.w &&
    800003ba:	01874703          	lbu	a4,24(a4)
    800003be:	f52703e3          	beq	a4,s2,80000304 <consoleintr+0x3c>
      cons.e--;
    800003c2:	0af4a023          	sw	a5,160(s1)
      consputc(BACKSPACE);
    800003c6:	10000513          	li	a0,256
    800003ca:	00000097          	auipc	ra,0x0
    800003ce:	e28080e7          	jalr	-472(ra) # 800001f2 <consputc>
    while(cons.e != cons.w &&
    800003d2:	0a04a783          	lw	a5,160(s1)
    800003d6:	09c4a703          	lw	a4,156(s1)
    800003da:	fcf71ce3          	bne	a4,a5,800003b2 <consoleintr+0xea>
    800003de:	b71d                	j	80000304 <consoleintr+0x3c>
    if(cons.e != cons.w){
    800003e0:	00011717          	auipc	a4,0x11
    800003e4:	42070713          	addi	a4,a4,1056 # 80011800 <cons>
    800003e8:	0a072783          	lw	a5,160(a4)
    800003ec:	09c72703          	lw	a4,156(a4)
    800003f0:	f0f70ae3          	beq	a4,a5,80000304 <consoleintr+0x3c>
      cons.e--;
    800003f4:	37fd                	addiw	a5,a5,-1
    800003f6:	00011717          	auipc	a4,0x11
    800003fa:	4af72523          	sw	a5,1194(a4) # 800118a0 <cons+0xa0>
      consputc(BACKSPACE);
    800003fe:	10000513          	li	a0,256
    80000402:	00000097          	auipc	ra,0x0
    80000406:	df0080e7          	jalr	-528(ra) # 800001f2 <consputc>
    8000040a:	bded                	j	80000304 <consoleintr+0x3c>
    if(c != 0 && cons.e-cons.r < INPUT_BUF){
    8000040c:	ee048ce3          	beqz	s1,80000304 <consoleintr+0x3c>
    80000410:	bf21                	j	80000328 <consoleintr+0x60>
      consputc(c);
    80000412:	4529                	li	a0,10
    80000414:	00000097          	auipc	ra,0x0
    80000418:	dde080e7          	jalr	-546(ra) # 800001f2 <consputc>
      cons.buf[cons.e++ % INPUT_BUF] = c;
    8000041c:	00011797          	auipc	a5,0x11
    80000420:	3e478793          	addi	a5,a5,996 # 80011800 <cons>
    80000424:	0a07a703          	lw	a4,160(a5)
    80000428:	0017069b          	addiw	a3,a4,1
    8000042c:	0006861b          	sext.w	a2,a3
    80000430:	0ad7a023          	sw	a3,160(a5)
    80000434:	07f77713          	andi	a4,a4,127
    80000438:	97ba                	add	a5,a5,a4
    8000043a:	4729                	li	a4,10
    8000043c:	00e78c23          	sb	a4,24(a5)
        cons.w = cons.e;
    80000440:	00011797          	auipc	a5,0x11
    80000444:	44c7ae23          	sw	a2,1116(a5) # 8001189c <cons+0x9c>
        wakeup(&cons.r);
    80000448:	00011517          	auipc	a0,0x11
    8000044c:	45050513          	addi	a0,a0,1104 # 80011898 <cons+0x98>
    80000450:	00002097          	auipc	ra,0x2
    80000454:	d1e080e7          	jalr	-738(ra) # 8000216e <wakeup>
    80000458:	b575                	j	80000304 <consoleintr+0x3c>

000000008000045a <consoleinit>:

void
consoleinit(void)
{
    8000045a:	1141                	addi	sp,sp,-16
    8000045c:	e406                	sd	ra,8(sp)
    8000045e:	e022                	sd	s0,0(sp)
    80000460:	0800                	addi	s0,sp,16
  initlock(&cons.lock, "cons");
    80000462:	00007597          	auipc	a1,0x7
    80000466:	cb658593          	addi	a1,a1,-842 # 80007118 <userret+0x88>
    8000046a:	00011517          	auipc	a0,0x11
    8000046e:	39650513          	addi	a0,a0,918 # 80011800 <cons>
    80000472:	00000097          	auipc	ra,0x0
    80000476:	53e080e7          	jalr	1342(ra) # 800009b0 <initlock>

  uartinit();
    8000047a:	00000097          	auipc	ra,0x0
    8000047e:	32a080e7          	jalr	810(ra) # 800007a4 <uartinit>

  // connect read and write system calls
  // to consoleread and consolewrite.
  devsw[CONSOLE].read = consoleread;
    80000482:	00021797          	auipc	a5,0x21
    80000486:	46678793          	addi	a5,a5,1126 # 800218e8 <devsw>
    8000048a:	00000717          	auipc	a4,0x0
    8000048e:	c5670713          	addi	a4,a4,-938 # 800000e0 <consoleread>
    80000492:	eb98                	sd	a4,16(a5)
  devsw[CONSOLE].write = consolewrite;
    80000494:	00000717          	auipc	a4,0x0
    80000498:	dac70713          	addi	a4,a4,-596 # 80000240 <consolewrite>
    8000049c:	ef98                	sd	a4,24(a5)
}
    8000049e:	60a2                	ld	ra,8(sp)
    800004a0:	6402                	ld	s0,0(sp)
    800004a2:	0141                	addi	sp,sp,16
    800004a4:	8082                	ret

00000000800004a6 <printint>:

static char digits[] = "0123456789abcdef";

static void
printint(int xx, int base, int sign)
{
    800004a6:	7179                	addi	sp,sp,-48
    800004a8:	f406                	sd	ra,40(sp)
    800004aa:	f022                	sd	s0,32(sp)
    800004ac:	ec26                	sd	s1,24(sp)
    800004ae:	e84a                	sd	s2,16(sp)
    800004b0:	1800                	addi	s0,sp,48
  char buf[16];
  int i;
  uint x;

  if(sign && (sign = xx < 0))
    800004b2:	c219                	beqz	a2,800004b8 <printint+0x12>
    800004b4:	08054663          	bltz	a0,80000540 <printint+0x9a>
    x = -xx;
  else
    x = xx;
    800004b8:	2501                	sext.w	a0,a0
    800004ba:	4881                	li	a7,0
    800004bc:	fd040693          	addi	a3,s0,-48

  i = 0;
    800004c0:	4701                	li	a4,0
  do {
    buf[i++] = digits[x % base];
    800004c2:	2581                	sext.w	a1,a1
    800004c4:	00007617          	auipc	a2,0x7
    800004c8:	3ec60613          	addi	a2,a2,1004 # 800078b0 <digits>
    800004cc:	883a                	mv	a6,a4
    800004ce:	2705                	addiw	a4,a4,1
    800004d0:	02b577bb          	remuw	a5,a0,a1
    800004d4:	1782                	slli	a5,a5,0x20
    800004d6:	9381                	srli	a5,a5,0x20
    800004d8:	97b2                	add	a5,a5,a2
    800004da:	0007c783          	lbu	a5,0(a5)
    800004de:	00f68023          	sb	a5,0(a3)
  } while((x /= base) != 0);
    800004e2:	0005079b          	sext.w	a5,a0
    800004e6:	02b5553b          	divuw	a0,a0,a1
    800004ea:	0685                	addi	a3,a3,1
    800004ec:	feb7f0e3          	bgeu	a5,a1,800004cc <printint+0x26>

  if(sign)
    800004f0:	00088b63          	beqz	a7,80000506 <printint+0x60>
    buf[i++] = '-';
    800004f4:	fe040793          	addi	a5,s0,-32
    800004f8:	973e                	add	a4,a4,a5
    800004fa:	02d00793          	li	a5,45
    800004fe:	fef70823          	sb	a5,-16(a4)
    80000502:	0028071b          	addiw	a4,a6,2

  while(--i >= 0)
    80000506:	02e05763          	blez	a4,80000534 <printint+0x8e>
    8000050a:	fd040793          	addi	a5,s0,-48
    8000050e:	00e784b3          	add	s1,a5,a4
    80000512:	fff78913          	addi	s2,a5,-1
    80000516:	993a                	add	s2,s2,a4
    80000518:	377d                	addiw	a4,a4,-1
    8000051a:	1702                	slli	a4,a4,0x20
    8000051c:	9301                	srli	a4,a4,0x20
    8000051e:	40e90933          	sub	s2,s2,a4
    consputc(buf[i]);
    80000522:	fff4c503          	lbu	a0,-1(s1)
    80000526:	00000097          	auipc	ra,0x0
    8000052a:	ccc080e7          	jalr	-820(ra) # 800001f2 <consputc>
  while(--i >= 0)
    8000052e:	14fd                	addi	s1,s1,-1
    80000530:	ff2499e3          	bne	s1,s2,80000522 <printint+0x7c>
}
    80000534:	70a2                	ld	ra,40(sp)
    80000536:	7402                	ld	s0,32(sp)
    80000538:	64e2                	ld	s1,24(sp)
    8000053a:	6942                	ld	s2,16(sp)
    8000053c:	6145                	addi	sp,sp,48
    8000053e:	8082                	ret
    x = -xx;
    80000540:	40a0053b          	negw	a0,a0
  if(sign && (sign = xx < 0))
    80000544:	4885                	li	a7,1
    x = -xx;
    80000546:	bf9d                	j	800004bc <printint+0x16>

0000000080000548 <panic>:
    release(&pr.lock);
}

void
panic(char *s)
{
    80000548:	1101                	addi	sp,sp,-32
    8000054a:	ec06                	sd	ra,24(sp)
    8000054c:	e822                	sd	s0,16(sp)
    8000054e:	e426                	sd	s1,8(sp)
    80000550:	1000                	addi	s0,sp,32
    80000552:	84aa                	mv	s1,a0
  pr.locking = 0;
    80000554:	00011797          	auipc	a5,0x11
    80000558:	3607a623          	sw	zero,876(a5) # 800118c0 <pr+0x18>
  printf("panic: ");
    8000055c:	00007517          	auipc	a0,0x7
    80000560:	bc450513          	addi	a0,a0,-1084 # 80007120 <userret+0x90>
    80000564:	00000097          	auipc	ra,0x0
    80000568:	02e080e7          	jalr	46(ra) # 80000592 <printf>
  printf(s);
    8000056c:	8526                	mv	a0,s1
    8000056e:	00000097          	auipc	ra,0x0
    80000572:	024080e7          	jalr	36(ra) # 80000592 <printf>
  printf("\n");
    80000576:	00007517          	auipc	a0,0x7
    8000057a:	c3a50513          	addi	a0,a0,-966 # 800071b0 <userret+0x120>
    8000057e:	00000097          	auipc	ra,0x0
    80000582:	014080e7          	jalr	20(ra) # 80000592 <printf>
  panicked = 1; // freeze other CPUs
    80000586:	4785                	li	a5,1
    80000588:	00029717          	auipc	a4,0x29
    8000058c:	a6f72c23          	sw	a5,-1416(a4) # 80029000 <panicked>
  for(;;)
    80000590:	a001                	j	80000590 <panic+0x48>

0000000080000592 <printf>:
{
    80000592:	7131                	addi	sp,sp,-192
    80000594:	fc86                	sd	ra,120(sp)
    80000596:	f8a2                	sd	s0,112(sp)
    80000598:	f4a6                	sd	s1,104(sp)
    8000059a:	f0ca                	sd	s2,96(sp)
    8000059c:	ecce                	sd	s3,88(sp)
    8000059e:	e8d2                	sd	s4,80(sp)
    800005a0:	e4d6                	sd	s5,72(sp)
    800005a2:	e0da                	sd	s6,64(sp)
    800005a4:	fc5e                	sd	s7,56(sp)
    800005a6:	f862                	sd	s8,48(sp)
    800005a8:	f466                	sd	s9,40(sp)
    800005aa:	f06a                	sd	s10,32(sp)
    800005ac:	ec6e                	sd	s11,24(sp)
    800005ae:	0100                	addi	s0,sp,128
    800005b0:	8a2a                	mv	s4,a0
    800005b2:	e40c                	sd	a1,8(s0)
    800005b4:	e810                	sd	a2,16(s0)
    800005b6:	ec14                	sd	a3,24(s0)
    800005b8:	f018                	sd	a4,32(s0)
    800005ba:	f41c                	sd	a5,40(s0)
    800005bc:	03043823          	sd	a6,48(s0)
    800005c0:	03143c23          	sd	a7,56(s0)
  locking = pr.locking;
    800005c4:	00011d97          	auipc	s11,0x11
    800005c8:	2fcdad83          	lw	s11,764(s11) # 800118c0 <pr+0x18>
  if(locking)
    800005cc:	020d9b63          	bnez	s11,80000602 <printf+0x70>
  if (fmt == 0)
    800005d0:	040a0263          	beqz	s4,80000614 <printf+0x82>
  va_start(ap, fmt);
    800005d4:	00840793          	addi	a5,s0,8
    800005d8:	f8f43423          	sd	a5,-120(s0)
  for(i = 0; (c = fmt[i] & 0xff) != 0; i++){
    800005dc:	000a4503          	lbu	a0,0(s4)
    800005e0:	14050f63          	beqz	a0,8000073e <printf+0x1ac>
    800005e4:	4981                	li	s3,0
    if(c != '%'){
    800005e6:	02500a93          	li	s5,37
    switch(c){
    800005ea:	07000b93          	li	s7,112
  consputc('x');
    800005ee:	4d41                	li	s10,16
    consputc(digits[x >> (sizeof(uint64) * 8 - 4)]);
    800005f0:	00007b17          	auipc	s6,0x7
    800005f4:	2c0b0b13          	addi	s6,s6,704 # 800078b0 <digits>
    switch(c){
    800005f8:	07300c93          	li	s9,115
    800005fc:	06400c13          	li	s8,100
    80000600:	a82d                	j	8000063a <printf+0xa8>
    acquire(&pr.lock);
    80000602:	00011517          	auipc	a0,0x11
    80000606:	2a650513          	addi	a0,a0,678 # 800118a8 <pr>
    8000060a:	00000097          	auipc	ra,0x0
    8000060e:	4b4080e7          	jalr	1204(ra) # 80000abe <acquire>
    80000612:	bf7d                	j	800005d0 <printf+0x3e>
    panic("null fmt");
    80000614:	00007517          	auipc	a0,0x7
    80000618:	b1c50513          	addi	a0,a0,-1252 # 80007130 <userret+0xa0>
    8000061c:	00000097          	auipc	ra,0x0
    80000620:	f2c080e7          	jalr	-212(ra) # 80000548 <panic>
      consputc(c);
    80000624:	00000097          	auipc	ra,0x0
    80000628:	bce080e7          	jalr	-1074(ra) # 800001f2 <consputc>
  for(i = 0; (c = fmt[i] & 0xff) != 0; i++){
    8000062c:	2985                	addiw	s3,s3,1
    8000062e:	013a07b3          	add	a5,s4,s3
    80000632:	0007c503          	lbu	a0,0(a5)
    80000636:	10050463          	beqz	a0,8000073e <printf+0x1ac>
    if(c != '%'){
    8000063a:	ff5515e3          	bne	a0,s5,80000624 <printf+0x92>
    c = fmt[++i] & 0xff;
    8000063e:	2985                	addiw	s3,s3,1
    80000640:	013a07b3          	add	a5,s4,s3
    80000644:	0007c783          	lbu	a5,0(a5)
    80000648:	0007849b          	sext.w	s1,a5
    if(c == 0)
    8000064c:	cbed                	beqz	a5,8000073e <printf+0x1ac>
    switch(c){
    8000064e:	05778a63          	beq	a5,s7,800006a2 <printf+0x110>
    80000652:	02fbf663          	bgeu	s7,a5,8000067e <printf+0xec>
    80000656:	09978863          	beq	a5,s9,800006e6 <printf+0x154>
    8000065a:	07800713          	li	a4,120
    8000065e:	0ce79563          	bne	a5,a4,80000728 <printf+0x196>
      printint(va_arg(ap, int), 16, 1);
    80000662:	f8843783          	ld	a5,-120(s0)
    80000666:	00878713          	addi	a4,a5,8
    8000066a:	f8e43423          	sd	a4,-120(s0)
    8000066e:	4605                	li	a2,1
    80000670:	85ea                	mv	a1,s10
    80000672:	4388                	lw	a0,0(a5)
    80000674:	00000097          	auipc	ra,0x0
    80000678:	e32080e7          	jalr	-462(ra) # 800004a6 <printint>
      break;
    8000067c:	bf45                	j	8000062c <printf+0x9a>
    switch(c){
    8000067e:	09578f63          	beq	a5,s5,8000071c <printf+0x18a>
    80000682:	0b879363          	bne	a5,s8,80000728 <printf+0x196>
      printint(va_arg(ap, int), 10, 1);
    80000686:	f8843783          	ld	a5,-120(s0)
    8000068a:	00878713          	addi	a4,a5,8
    8000068e:	f8e43423          	sd	a4,-120(s0)
    80000692:	4605                	li	a2,1
    80000694:	45a9                	li	a1,10
    80000696:	4388                	lw	a0,0(a5)
    80000698:	00000097          	auipc	ra,0x0
    8000069c:	e0e080e7          	jalr	-498(ra) # 800004a6 <printint>
      break;
    800006a0:	b771                	j	8000062c <printf+0x9a>
      printptr(va_arg(ap, uint64));
    800006a2:	f8843783          	ld	a5,-120(s0)
    800006a6:	00878713          	addi	a4,a5,8
    800006aa:	f8e43423          	sd	a4,-120(s0)
    800006ae:	0007b903          	ld	s2,0(a5)
  consputc('0');
    800006b2:	03000513          	li	a0,48
    800006b6:	00000097          	auipc	ra,0x0
    800006ba:	b3c080e7          	jalr	-1220(ra) # 800001f2 <consputc>
  consputc('x');
    800006be:	07800513          	li	a0,120
    800006c2:	00000097          	auipc	ra,0x0
    800006c6:	b30080e7          	jalr	-1232(ra) # 800001f2 <consputc>
    800006ca:	84ea                	mv	s1,s10
    consputc(digits[x >> (sizeof(uint64) * 8 - 4)]);
    800006cc:	03c95793          	srli	a5,s2,0x3c
    800006d0:	97da                	add	a5,a5,s6
    800006d2:	0007c503          	lbu	a0,0(a5)
    800006d6:	00000097          	auipc	ra,0x0
    800006da:	b1c080e7          	jalr	-1252(ra) # 800001f2 <consputc>
  for (i = 0; i < (sizeof(uint64) * 2); i++, x <<= 4)
    800006de:	0912                	slli	s2,s2,0x4
    800006e0:	34fd                	addiw	s1,s1,-1
    800006e2:	f4ed                	bnez	s1,800006cc <printf+0x13a>
    800006e4:	b7a1                	j	8000062c <printf+0x9a>
      if((s = va_arg(ap, char*)) == 0)
    800006e6:	f8843783          	ld	a5,-120(s0)
    800006ea:	00878713          	addi	a4,a5,8
    800006ee:	f8e43423          	sd	a4,-120(s0)
    800006f2:	6384                	ld	s1,0(a5)
    800006f4:	cc89                	beqz	s1,8000070e <printf+0x17c>
      for(; *s; s++)
    800006f6:	0004c503          	lbu	a0,0(s1)
    800006fa:	d90d                	beqz	a0,8000062c <printf+0x9a>
        consputc(*s);
    800006fc:	00000097          	auipc	ra,0x0
    80000700:	af6080e7          	jalr	-1290(ra) # 800001f2 <consputc>
      for(; *s; s++)
    80000704:	0485                	addi	s1,s1,1
    80000706:	0004c503          	lbu	a0,0(s1)
    8000070a:	f96d                	bnez	a0,800006fc <printf+0x16a>
    8000070c:	b705                	j	8000062c <printf+0x9a>
        s = "(null)";
    8000070e:	00007497          	auipc	s1,0x7
    80000712:	a1a48493          	addi	s1,s1,-1510 # 80007128 <userret+0x98>
      for(; *s; s++)
    80000716:	02800513          	li	a0,40
    8000071a:	b7cd                	j	800006fc <printf+0x16a>
      consputc('%');
    8000071c:	8556                	mv	a0,s5
    8000071e:	00000097          	auipc	ra,0x0
    80000722:	ad4080e7          	jalr	-1324(ra) # 800001f2 <consputc>
      break;
    80000726:	b719                	j	8000062c <printf+0x9a>
      consputc('%');
    80000728:	8556                	mv	a0,s5
    8000072a:	00000097          	auipc	ra,0x0
    8000072e:	ac8080e7          	jalr	-1336(ra) # 800001f2 <consputc>
      consputc(c);
    80000732:	8526                	mv	a0,s1
    80000734:	00000097          	auipc	ra,0x0
    80000738:	abe080e7          	jalr	-1346(ra) # 800001f2 <consputc>
      break;
    8000073c:	bdc5                	j	8000062c <printf+0x9a>
  if(locking)
    8000073e:	020d9163          	bnez	s11,80000760 <printf+0x1ce>
}
    80000742:	70e6                	ld	ra,120(sp)
    80000744:	7446                	ld	s0,112(sp)
    80000746:	74a6                	ld	s1,104(sp)
    80000748:	7906                	ld	s2,96(sp)
    8000074a:	69e6                	ld	s3,88(sp)
    8000074c:	6a46                	ld	s4,80(sp)
    8000074e:	6aa6                	ld	s5,72(sp)
    80000750:	6b06                	ld	s6,64(sp)
    80000752:	7be2                	ld	s7,56(sp)
    80000754:	7c42                	ld	s8,48(sp)
    80000756:	7ca2                	ld	s9,40(sp)
    80000758:	7d02                	ld	s10,32(sp)
    8000075a:	6de2                	ld	s11,24(sp)
    8000075c:	6129                	addi	sp,sp,192
    8000075e:	8082                	ret
    release(&pr.lock);
    80000760:	00011517          	auipc	a0,0x11
    80000764:	14850513          	addi	a0,a0,328 # 800118a8 <pr>
    80000768:	00000097          	auipc	ra,0x0
    8000076c:	3be080e7          	jalr	958(ra) # 80000b26 <release>
}
    80000770:	bfc9                	j	80000742 <printf+0x1b0>

0000000080000772 <printfinit>:
    ;
}

void
printfinit(void)
{
    80000772:	1101                	addi	sp,sp,-32
    80000774:	ec06                	sd	ra,24(sp)
    80000776:	e822                	sd	s0,16(sp)
    80000778:	e426                	sd	s1,8(sp)
    8000077a:	1000                	addi	s0,sp,32
  initlock(&pr.lock, "pr");
    8000077c:	00011497          	auipc	s1,0x11
    80000780:	12c48493          	addi	s1,s1,300 # 800118a8 <pr>
    80000784:	00007597          	auipc	a1,0x7
    80000788:	9bc58593          	addi	a1,a1,-1604 # 80007140 <userret+0xb0>
    8000078c:	8526                	mv	a0,s1
    8000078e:	00000097          	auipc	ra,0x0
    80000792:	222080e7          	jalr	546(ra) # 800009b0 <initlock>
  pr.locking = 1;
    80000796:	4785                	li	a5,1
    80000798:	cc9c                	sw	a5,24(s1)
}
    8000079a:	60e2                	ld	ra,24(sp)
    8000079c:	6442                	ld	s0,16(sp)
    8000079e:	64a2                	ld	s1,8(sp)
    800007a0:	6105                	addi	sp,sp,32
    800007a2:	8082                	ret

00000000800007a4 <uartinit>:
#define ReadReg(reg) (*(Reg(reg)))
#define WriteReg(reg, v) (*(Reg(reg)) = (v))

void
uartinit(void)
{
    800007a4:	1141                	addi	sp,sp,-16
    800007a6:	e422                	sd	s0,8(sp)
    800007a8:	0800                	addi	s0,sp,16
  // disable interrupts.
  WriteReg(IER, 0x00);
    800007aa:	100007b7          	lui	a5,0x10000
    800007ae:	000780a3          	sb	zero,1(a5) # 10000001 <_entry-0x6fffffff>

  // special mode to set baud rate.
  WriteReg(LCR, 0x80);
    800007b2:	f8000713          	li	a4,-128
    800007b6:	00e781a3          	sb	a4,3(a5)

  // LSB for baud rate of 38.4K.
  WriteReg(0, 0x03);
    800007ba:	470d                	li	a4,3
    800007bc:	00e78023          	sb	a4,0(a5)

  // MSB for baud rate of 38.4K.
  WriteReg(1, 0x00);
    800007c0:	000780a3          	sb	zero,1(a5)

  // leave set-baud mode,
  // and set word length to 8 bits, no parity.
  WriteReg(LCR, 0x03);
    800007c4:	00e781a3          	sb	a4,3(a5)

  // reset and enable FIFOs.
  WriteReg(FCR, 0x07);
    800007c8:	471d                	li	a4,7
    800007ca:	00e78123          	sb	a4,2(a5)

  // enable receive interrupts.
  WriteReg(IER, 0x01);
    800007ce:	4705                	li	a4,1
    800007d0:	00e780a3          	sb	a4,1(a5)
}
    800007d4:	6422                	ld	s0,8(sp)
    800007d6:	0141                	addi	sp,sp,16
    800007d8:	8082                	ret

00000000800007da <uartputc>:

// write one output character to the UART.
void
uartputc(int c)
{
    800007da:	1141                	addi	sp,sp,-16
    800007dc:	e422                	sd	s0,8(sp)
    800007de:	0800                	addi	s0,sp,16
  // wait for Transmit Holding Empty to be set in LSR.
  while((ReadReg(LSR) & (1 << 5)) == 0)
    800007e0:	10000737          	lui	a4,0x10000
    800007e4:	00574783          	lbu	a5,5(a4) # 10000005 <_entry-0x6ffffffb>
    800007e8:	0207f793          	andi	a5,a5,32
    800007ec:	dfe5                	beqz	a5,800007e4 <uartputc+0xa>
    ;
  WriteReg(THR, c);
    800007ee:	0ff57513          	andi	a0,a0,255
    800007f2:	100007b7          	lui	a5,0x10000
    800007f6:	00a78023          	sb	a0,0(a5) # 10000000 <_entry-0x70000000>
}
    800007fa:	6422                	ld	s0,8(sp)
    800007fc:	0141                	addi	sp,sp,16
    800007fe:	8082                	ret

0000000080000800 <uartgetc>:

// read one input character from the UART.
// return -1 if none is waiting.
int
uartgetc(void)
{
    80000800:	1141                	addi	sp,sp,-16
    80000802:	e422                	sd	s0,8(sp)
    80000804:	0800                	addi	s0,sp,16
  if(ReadReg(LSR) & 0x01){
    80000806:	100007b7          	lui	a5,0x10000
    8000080a:	0057c783          	lbu	a5,5(a5) # 10000005 <_entry-0x6ffffffb>
    8000080e:	8b85                	andi	a5,a5,1
    80000810:	cb91                	beqz	a5,80000824 <uartgetc+0x24>
    // input data is ready.
    return ReadReg(RHR);
    80000812:	100007b7          	lui	a5,0x10000
    80000816:	0007c503          	lbu	a0,0(a5) # 10000000 <_entry-0x70000000>
    8000081a:	0ff57513          	andi	a0,a0,255
  } else {
    return -1;
  }
}
    8000081e:	6422                	ld	s0,8(sp)
    80000820:	0141                	addi	sp,sp,16
    80000822:	8082                	ret
    return -1;
    80000824:	557d                	li	a0,-1
    80000826:	bfe5                	j	8000081e <uartgetc+0x1e>

0000000080000828 <uartintr>:

// trap.c calls here when the uart interrupts.
void
uartintr(void)
{
    80000828:	1101                	addi	sp,sp,-32
    8000082a:	ec06                	sd	ra,24(sp)
    8000082c:	e822                	sd	s0,16(sp)
    8000082e:	e426                	sd	s1,8(sp)
    80000830:	1000                	addi	s0,sp,32
  while(1){
    int c = uartgetc();
    if(c == -1)
    80000832:	54fd                	li	s1,-1
    80000834:	a029                	j	8000083e <uartintr+0x16>
      break;
    consoleintr(c);
    80000836:	00000097          	auipc	ra,0x0
    8000083a:	a92080e7          	jalr	-1390(ra) # 800002c8 <consoleintr>
    int c = uartgetc();
    8000083e:	00000097          	auipc	ra,0x0
    80000842:	fc2080e7          	jalr	-62(ra) # 80000800 <uartgetc>
    if(c == -1)
    80000846:	fe9518e3          	bne	a0,s1,80000836 <uartintr+0xe>
  }
}
    8000084a:	60e2                	ld	ra,24(sp)
    8000084c:	6442                	ld	s0,16(sp)
    8000084e:	64a2                	ld	s1,8(sp)
    80000850:	6105                	addi	sp,sp,32
    80000852:	8082                	ret

0000000080000854 <kfree>:
// which normally should have been returned by a
// call to kalloc().  (The exception is when
// initializing the allocator; see kinit above.)
void
kfree(void *pa)
{
    80000854:	1101                	addi	sp,sp,-32
    80000856:	ec06                	sd	ra,24(sp)
    80000858:	e822                	sd	s0,16(sp)
    8000085a:	e426                	sd	s1,8(sp)
    8000085c:	e04a                	sd	s2,0(sp)
    8000085e:	1000                	addi	s0,sp,32
  struct run *r;

  if(((uint64)pa % PGSIZE) != 0 || (char*)pa < end || (uint64)pa >= PHYSTOP)
    80000860:	03451793          	slli	a5,a0,0x34
    80000864:	ebb9                	bnez	a5,800008ba <kfree+0x66>
    80000866:	84aa                	mv	s1,a0
    80000868:	00028797          	auipc	a5,0x28
    8000086c:	79878793          	addi	a5,a5,1944 # 80029000 <panicked>
    80000870:	04f56563          	bltu	a0,a5,800008ba <kfree+0x66>
    80000874:	47c5                	li	a5,17
    80000876:	07ee                	slli	a5,a5,0x1b
    80000878:	04f57163          	bgeu	a0,a5,800008ba <kfree+0x66>
    panic("kfree");

  // Fill with junk to catch dangling refs.
  memset(pa, 1, PGSIZE);
    8000087c:	6605                	lui	a2,0x1
    8000087e:	4585                	li	a1,1
    80000880:	00000097          	auipc	ra,0x0
    80000884:	302080e7          	jalr	770(ra) # 80000b82 <memset>

  r = (struct run*)pa;

  acquire(&kmem.lock);
    80000888:	00011917          	auipc	s2,0x11
    8000088c:	04090913          	addi	s2,s2,64 # 800118c8 <kmem>
    80000890:	854a                	mv	a0,s2
    80000892:	00000097          	auipc	ra,0x0
    80000896:	22c080e7          	jalr	556(ra) # 80000abe <acquire>
  r->next = kmem.freelist;
    8000089a:	01893783          	ld	a5,24(s2)
    8000089e:	e09c                	sd	a5,0(s1)
  kmem.freelist = r;
    800008a0:	00993c23          	sd	s1,24(s2)
  release(&kmem.lock);
    800008a4:	854a                	mv	a0,s2
    800008a6:	00000097          	auipc	ra,0x0
    800008aa:	280080e7          	jalr	640(ra) # 80000b26 <release>
}
    800008ae:	60e2                	ld	ra,24(sp)
    800008b0:	6442                	ld	s0,16(sp)
    800008b2:	64a2                	ld	s1,8(sp)
    800008b4:	6902                	ld	s2,0(sp)
    800008b6:	6105                	addi	sp,sp,32
    800008b8:	8082                	ret
    panic("kfree");
    800008ba:	00007517          	auipc	a0,0x7
    800008be:	88e50513          	addi	a0,a0,-1906 # 80007148 <userret+0xb8>
    800008c2:	00000097          	auipc	ra,0x0
    800008c6:	c86080e7          	jalr	-890(ra) # 80000548 <panic>

00000000800008ca <freerange>:
{
    800008ca:	7179                	addi	sp,sp,-48
    800008cc:	f406                	sd	ra,40(sp)
    800008ce:	f022                	sd	s0,32(sp)
    800008d0:	ec26                	sd	s1,24(sp)
    800008d2:	e84a                	sd	s2,16(sp)
    800008d4:	e44e                	sd	s3,8(sp)
    800008d6:	e052                	sd	s4,0(sp)
    800008d8:	1800                	addi	s0,sp,48
  p = (char*)PGROUNDUP((uint64)pa_start);
    800008da:	6485                	lui	s1,0x1
    800008dc:	14fd                	addi	s1,s1,-1
    800008de:	94aa                	add	s1,s1,a0
    800008e0:	757d                	lui	a0,0xfffff
    800008e2:	8ce9                	and	s1,s1,a0
  for(; p + PGSIZE <= (char*)pa_end; p += PGSIZE)
    800008e4:	6789                	lui	a5,0x2
    800008e6:	94be                	add	s1,s1,a5
    800008e8:	0095ee63          	bltu	a1,s1,80000904 <freerange+0x3a>
    800008ec:	892e                	mv	s2,a1
    kfree(p);
    800008ee:	7a7d                	lui	s4,0xfffff
  for(; p + PGSIZE <= (char*)pa_end; p += PGSIZE)
    800008f0:	6985                	lui	s3,0x1
    kfree(p);
    800008f2:	01448533          	add	a0,s1,s4
    800008f6:	00000097          	auipc	ra,0x0
    800008fa:	f5e080e7          	jalr	-162(ra) # 80000854 <kfree>
  for(; p + PGSIZE <= (char*)pa_end; p += PGSIZE)
    800008fe:	94ce                	add	s1,s1,s3
    80000900:	fe9979e3          	bgeu	s2,s1,800008f2 <freerange+0x28>
}
    80000904:	70a2                	ld	ra,40(sp)
    80000906:	7402                	ld	s0,32(sp)
    80000908:	64e2                	ld	s1,24(sp)
    8000090a:	6942                	ld	s2,16(sp)
    8000090c:	69a2                	ld	s3,8(sp)
    8000090e:	6a02                	ld	s4,0(sp)
    80000910:	6145                	addi	sp,sp,48
    80000912:	8082                	ret

0000000080000914 <kinit>:
{
    80000914:	1141                	addi	sp,sp,-16
    80000916:	e406                	sd	ra,8(sp)
    80000918:	e022                	sd	s0,0(sp)
    8000091a:	0800                	addi	s0,sp,16
  initlock(&kmem.lock, "kmem");
    8000091c:	00007597          	auipc	a1,0x7
    80000920:	83458593          	addi	a1,a1,-1996 # 80007150 <userret+0xc0>
    80000924:	00011517          	auipc	a0,0x11
    80000928:	fa450513          	addi	a0,a0,-92 # 800118c8 <kmem>
    8000092c:	00000097          	auipc	ra,0x0
    80000930:	084080e7          	jalr	132(ra) # 800009b0 <initlock>
  freerange(end, (void*)PHYSTOP);
    80000934:	45c5                	li	a1,17
    80000936:	05ee                	slli	a1,a1,0x1b
    80000938:	00028517          	auipc	a0,0x28
    8000093c:	6c850513          	addi	a0,a0,1736 # 80029000 <panicked>
    80000940:	00000097          	auipc	ra,0x0
    80000944:	f8a080e7          	jalr	-118(ra) # 800008ca <freerange>
}
    80000948:	60a2                	ld	ra,8(sp)
    8000094a:	6402                	ld	s0,0(sp)
    8000094c:	0141                	addi	sp,sp,16
    8000094e:	8082                	ret

0000000080000950 <kalloc>:
// Allocate one 4096-byte page of physical memory.
// Returns a pointer that the kernel can use.
// Returns 0 if the memory cannot be allocated.
void *
kalloc(void)
{
    80000950:	1101                	addi	sp,sp,-32
    80000952:	ec06                	sd	ra,24(sp)
    80000954:	e822                	sd	s0,16(sp)
    80000956:	e426                	sd	s1,8(sp)
    80000958:	1000                	addi	s0,sp,32
  struct run *r;

  acquire(&kmem.lock);
    8000095a:	00011497          	auipc	s1,0x11
    8000095e:	f6e48493          	addi	s1,s1,-146 # 800118c8 <kmem>
    80000962:	8526                	mv	a0,s1
    80000964:	00000097          	auipc	ra,0x0
    80000968:	15a080e7          	jalr	346(ra) # 80000abe <acquire>
  r = kmem.freelist;
    8000096c:	6c84                	ld	s1,24(s1)
  if(r)
    8000096e:	c885                	beqz	s1,8000099e <kalloc+0x4e>
    kmem.freelist = r->next;
    80000970:	609c                	ld	a5,0(s1)
    80000972:	00011517          	auipc	a0,0x11
    80000976:	f5650513          	addi	a0,a0,-170 # 800118c8 <kmem>
    8000097a:	ed1c                	sd	a5,24(a0)
  release(&kmem.lock);
    8000097c:	00000097          	auipc	ra,0x0
    80000980:	1aa080e7          	jalr	426(ra) # 80000b26 <release>

  if(r)
    memset((char*)r, 5, PGSIZE); // fill with junk
    80000984:	6605                	lui	a2,0x1
    80000986:	4595                	li	a1,5
    80000988:	8526                	mv	a0,s1
    8000098a:	00000097          	auipc	ra,0x0
    8000098e:	1f8080e7          	jalr	504(ra) # 80000b82 <memset>
  return (void*)r;
}
    80000992:	8526                	mv	a0,s1
    80000994:	60e2                	ld	ra,24(sp)
    80000996:	6442                	ld	s0,16(sp)
    80000998:	64a2                	ld	s1,8(sp)
    8000099a:	6105                	addi	sp,sp,32
    8000099c:	8082                	ret
  release(&kmem.lock);
    8000099e:	00011517          	auipc	a0,0x11
    800009a2:	f2a50513          	addi	a0,a0,-214 # 800118c8 <kmem>
    800009a6:	00000097          	auipc	ra,0x0
    800009aa:	180080e7          	jalr	384(ra) # 80000b26 <release>
  if(r)
    800009ae:	b7d5                	j	80000992 <kalloc+0x42>

00000000800009b0 <initlock>:

uint64 ntest_and_set;

void
initlock(struct spinlock *lk, char *name)
{
    800009b0:	1141                	addi	sp,sp,-16
    800009b2:	e422                	sd	s0,8(sp)
    800009b4:	0800                	addi	s0,sp,16
  lk->name = name;
    800009b6:	e50c                	sd	a1,8(a0)
  lk->locked = 0;
    800009b8:	00052023          	sw	zero,0(a0)
  lk->cpu = 0;
    800009bc:	00053823          	sd	zero,16(a0)
}
    800009c0:	6422                	ld	s0,8(sp)
    800009c2:	0141                	addi	sp,sp,16
    800009c4:	8082                	ret

00000000800009c6 <push_off>:
// it takes two pop_off()s to undo two push_off()s.  Also, if interrupts
// are initially off, then push_off, pop_off leaves them off.

void
push_off(void)
{
    800009c6:	1101                	addi	sp,sp,-32
    800009c8:	ec06                	sd	ra,24(sp)
    800009ca:	e822                	sd	s0,16(sp)
    800009cc:	e426                	sd	s1,8(sp)
    800009ce:	1000                	addi	s0,sp,32
  asm volatile("csrr %0, sstatus" : "=r" (x) );
    800009d0:	100024f3          	csrr	s1,sstatus
    800009d4:	100027f3          	csrr	a5,sstatus
  w_sstatus(r_sstatus() & ~SSTATUS_SIE);
    800009d8:	9bf5                	andi	a5,a5,-3
  asm volatile("csrw sstatus, %0" : : "r" (x));
    800009da:	10079073          	csrw	sstatus,a5
  int old = intr_get();

  intr_off();
  if(mycpu()->noff == 0)
    800009de:	00001097          	auipc	ra,0x1
    800009e2:	e24080e7          	jalr	-476(ra) # 80001802 <mycpu>
    800009e6:	5d3c                	lw	a5,120(a0)
    800009e8:	cf89                	beqz	a5,80000a02 <push_off+0x3c>
    mycpu()->intena = old;
  mycpu()->noff += 1;
    800009ea:	00001097          	auipc	ra,0x1
    800009ee:	e18080e7          	jalr	-488(ra) # 80001802 <mycpu>
    800009f2:	5d3c                	lw	a5,120(a0)
    800009f4:	2785                	addiw	a5,a5,1
    800009f6:	dd3c                	sw	a5,120(a0)
}
    800009f8:	60e2                	ld	ra,24(sp)
    800009fa:	6442                	ld	s0,16(sp)
    800009fc:	64a2                	ld	s1,8(sp)
    800009fe:	6105                	addi	sp,sp,32
    80000a00:	8082                	ret
    mycpu()->intena = old;
    80000a02:	00001097          	auipc	ra,0x1
    80000a06:	e00080e7          	jalr	-512(ra) # 80001802 <mycpu>
  return (x & SSTATUS_SIE) != 0;
    80000a0a:	8085                	srli	s1,s1,0x1
    80000a0c:	8885                	andi	s1,s1,1
    80000a0e:	dd64                	sw	s1,124(a0)
    80000a10:	bfe9                	j	800009ea <push_off+0x24>

0000000080000a12 <pop_off>:

void
pop_off(void)
{
    80000a12:	1141                	addi	sp,sp,-16
    80000a14:	e406                	sd	ra,8(sp)
    80000a16:	e022                	sd	s0,0(sp)
    80000a18:	0800                	addi	s0,sp,16
  struct cpu *c = mycpu();
    80000a1a:	00001097          	auipc	ra,0x1
    80000a1e:	de8080e7          	jalr	-536(ra) # 80001802 <mycpu>
  asm volatile("csrr %0, sstatus" : "=r" (x) );
    80000a22:	100027f3          	csrr	a5,sstatus
  return (x & SSTATUS_SIE) != 0;
    80000a26:	8b89                	andi	a5,a5,2
  if(intr_get())
    80000a28:	eb9d                	bnez	a5,80000a5e <pop_off+0x4c>
    panic("pop_off - interruptible");
  c->noff -= 1;
    80000a2a:	5d3c                	lw	a5,120(a0)
    80000a2c:	37fd                	addiw	a5,a5,-1
    80000a2e:	0007871b          	sext.w	a4,a5
    80000a32:	dd3c                	sw	a5,120(a0)
  if(c->noff < 0)
    80000a34:	02074d63          	bltz	a4,80000a6e <pop_off+0x5c>
    panic("pop_off");
  if(c->noff == 0 && c->intena)
    80000a38:	ef19                	bnez	a4,80000a56 <pop_off+0x44>
    80000a3a:	5d7c                	lw	a5,124(a0)
    80000a3c:	cf89                	beqz	a5,80000a56 <pop_off+0x44>
  asm volatile("csrr %0, sie" : "=r" (x) );
    80000a3e:	104027f3          	csrr	a5,sie
  w_sie(r_sie() | SIE_SEIE | SIE_STIE | SIE_SSIE);
    80000a42:	2227e793          	ori	a5,a5,546
  asm volatile("csrw sie, %0" : : "r" (x));
    80000a46:	10479073          	csrw	sie,a5
  asm volatile("csrr %0, sstatus" : "=r" (x) );
    80000a4a:	100027f3          	csrr	a5,sstatus
  w_sstatus(r_sstatus() | SSTATUS_SIE);
    80000a4e:	0027e793          	ori	a5,a5,2
  asm volatile("csrw sstatus, %0" : : "r" (x));
    80000a52:	10079073          	csrw	sstatus,a5
    intr_on();
}
    80000a56:	60a2                	ld	ra,8(sp)
    80000a58:	6402                	ld	s0,0(sp)
    80000a5a:	0141                	addi	sp,sp,16
    80000a5c:	8082                	ret
    panic("pop_off - interruptible");
    80000a5e:	00006517          	auipc	a0,0x6
    80000a62:	6fa50513          	addi	a0,a0,1786 # 80007158 <userret+0xc8>
    80000a66:	00000097          	auipc	ra,0x0
    80000a6a:	ae2080e7          	jalr	-1310(ra) # 80000548 <panic>
    panic("pop_off");
    80000a6e:	00006517          	auipc	a0,0x6
    80000a72:	70250513          	addi	a0,a0,1794 # 80007170 <userret+0xe0>
    80000a76:	00000097          	auipc	ra,0x0
    80000a7a:	ad2080e7          	jalr	-1326(ra) # 80000548 <panic>

0000000080000a7e <holding>:
{
    80000a7e:	1101                	addi	sp,sp,-32
    80000a80:	ec06                	sd	ra,24(sp)
    80000a82:	e822                	sd	s0,16(sp)
    80000a84:	e426                	sd	s1,8(sp)
    80000a86:	1000                	addi	s0,sp,32
    80000a88:	84aa                	mv	s1,a0
  push_off();
    80000a8a:	00000097          	auipc	ra,0x0
    80000a8e:	f3c080e7          	jalr	-196(ra) # 800009c6 <push_off>
  r = (lk->locked && lk->cpu == mycpu());
    80000a92:	409c                	lw	a5,0(s1)
    80000a94:	ef81                	bnez	a5,80000aac <holding+0x2e>
    80000a96:	4481                	li	s1,0
  pop_off();
    80000a98:	00000097          	auipc	ra,0x0
    80000a9c:	f7a080e7          	jalr	-134(ra) # 80000a12 <pop_off>
}
    80000aa0:	8526                	mv	a0,s1
    80000aa2:	60e2                	ld	ra,24(sp)
    80000aa4:	6442                	ld	s0,16(sp)
    80000aa6:	64a2                	ld	s1,8(sp)
    80000aa8:	6105                	addi	sp,sp,32
    80000aaa:	8082                	ret
  r = (lk->locked && lk->cpu == mycpu());
    80000aac:	6884                	ld	s1,16(s1)
    80000aae:	00001097          	auipc	ra,0x1
    80000ab2:	d54080e7          	jalr	-684(ra) # 80001802 <mycpu>
    80000ab6:	8c89                	sub	s1,s1,a0
    80000ab8:	0014b493          	seqz	s1,s1
    80000abc:	bff1                	j	80000a98 <holding+0x1a>

0000000080000abe <acquire>:
{
    80000abe:	1101                	addi	sp,sp,-32
    80000ac0:	ec06                	sd	ra,24(sp)
    80000ac2:	e822                	sd	s0,16(sp)
    80000ac4:	e426                	sd	s1,8(sp)
    80000ac6:	1000                	addi	s0,sp,32
    80000ac8:	84aa                	mv	s1,a0
  push_off(); // disable interrupts to avoid deadlock.
    80000aca:	00000097          	auipc	ra,0x0
    80000ace:	efc080e7          	jalr	-260(ra) # 800009c6 <push_off>
  if(holding(lk))
    80000ad2:	8526                	mv	a0,s1
    80000ad4:	00000097          	auipc	ra,0x0
    80000ad8:	faa080e7          	jalr	-86(ra) # 80000a7e <holding>
    80000adc:	e901                	bnez	a0,80000aec <acquire+0x2e>
  while(__sync_lock_test_and_set(&lk->locked, 1) != 0) {
    80000ade:	4685                	li	a3,1
     __sync_fetch_and_add(&ntest_and_set, 1);
    80000ae0:	00028717          	auipc	a4,0x28
    80000ae4:	52870713          	addi	a4,a4,1320 # 80029008 <ntest_and_set>
    80000ae8:	4605                	li	a2,1
    80000aea:	a829                	j	80000b04 <acquire+0x46>
    panic("acquire");
    80000aec:	00006517          	auipc	a0,0x6
    80000af0:	68c50513          	addi	a0,a0,1676 # 80007178 <userret+0xe8>
    80000af4:	00000097          	auipc	ra,0x0
    80000af8:	a54080e7          	jalr	-1452(ra) # 80000548 <panic>
     __sync_fetch_and_add(&ntest_and_set, 1);
    80000afc:	0f50000f          	fence	iorw,ow
    80000b00:	04c7302f          	amoadd.d.aq	zero,a2,(a4)
  while(__sync_lock_test_and_set(&lk->locked, 1) != 0) {
    80000b04:	87b6                	mv	a5,a3
    80000b06:	0cf4a7af          	amoswap.w.aq	a5,a5,(s1)
    80000b0a:	2781                	sext.w	a5,a5
    80000b0c:	fbe5                	bnez	a5,80000afc <acquire+0x3e>
  __sync_synchronize();
    80000b0e:	0ff0000f          	fence
  lk->cpu = mycpu();
    80000b12:	00001097          	auipc	ra,0x1
    80000b16:	cf0080e7          	jalr	-784(ra) # 80001802 <mycpu>
    80000b1a:	e888                	sd	a0,16(s1)
}
    80000b1c:	60e2                	ld	ra,24(sp)
    80000b1e:	6442                	ld	s0,16(sp)
    80000b20:	64a2                	ld	s1,8(sp)
    80000b22:	6105                	addi	sp,sp,32
    80000b24:	8082                	ret

0000000080000b26 <release>:
{
    80000b26:	1101                	addi	sp,sp,-32
    80000b28:	ec06                	sd	ra,24(sp)
    80000b2a:	e822                	sd	s0,16(sp)
    80000b2c:	e426                	sd	s1,8(sp)
    80000b2e:	1000                	addi	s0,sp,32
    80000b30:	84aa                	mv	s1,a0
  if(!holding(lk))
    80000b32:	00000097          	auipc	ra,0x0
    80000b36:	f4c080e7          	jalr	-180(ra) # 80000a7e <holding>
    80000b3a:	c115                	beqz	a0,80000b5e <release+0x38>
  lk->cpu = 0;
    80000b3c:	0004b823          	sd	zero,16(s1)
  __sync_synchronize();
    80000b40:	0ff0000f          	fence
  __sync_lock_release(&lk->locked);
    80000b44:	0f50000f          	fence	iorw,ow
    80000b48:	0804a02f          	amoswap.w	zero,zero,(s1)
  pop_off();
    80000b4c:	00000097          	auipc	ra,0x0
    80000b50:	ec6080e7          	jalr	-314(ra) # 80000a12 <pop_off>
}
    80000b54:	60e2                	ld	ra,24(sp)
    80000b56:	6442                	ld	s0,16(sp)
    80000b58:	64a2                	ld	s1,8(sp)
    80000b5a:	6105                	addi	sp,sp,32
    80000b5c:	8082                	ret
    panic("release");
    80000b5e:	00006517          	auipc	a0,0x6
    80000b62:	62250513          	addi	a0,a0,1570 # 80007180 <userret+0xf0>
    80000b66:	00000097          	auipc	ra,0x0
    80000b6a:	9e2080e7          	jalr	-1566(ra) # 80000548 <panic>

0000000080000b6e <sys_ntas>:

uint64
sys_ntas(void)
{
    80000b6e:	1141                	addi	sp,sp,-16
    80000b70:	e422                	sd	s0,8(sp)
    80000b72:	0800                	addi	s0,sp,16
  return ntest_and_set;
}
    80000b74:	00028517          	auipc	a0,0x28
    80000b78:	49453503          	ld	a0,1172(a0) # 80029008 <ntest_and_set>
    80000b7c:	6422                	ld	s0,8(sp)
    80000b7e:	0141                	addi	sp,sp,16
    80000b80:	8082                	ret

0000000080000b82 <memset>:
#include "types.h"

void*
memset(void *dst, int c, uint n)
{
    80000b82:	1141                	addi	sp,sp,-16
    80000b84:	e422                	sd	s0,8(sp)
    80000b86:	0800                	addi	s0,sp,16
  char *cdst = (char *) dst;
  int i;
  for(i = 0; i < n; i++){
    80000b88:	ca19                	beqz	a2,80000b9e <memset+0x1c>
    80000b8a:	87aa                	mv	a5,a0
    80000b8c:	1602                	slli	a2,a2,0x20
    80000b8e:	9201                	srli	a2,a2,0x20
    80000b90:	00a60733          	add	a4,a2,a0
    cdst[i] = c;
    80000b94:	00b78023          	sb	a1,0(a5) # 2000 <_entry-0x7fffe000>
  for(i = 0; i < n; i++){
    80000b98:	0785                	addi	a5,a5,1
    80000b9a:	fee79de3          	bne	a5,a4,80000b94 <memset+0x12>
  }
  return dst;
}
    80000b9e:	6422                	ld	s0,8(sp)
    80000ba0:	0141                	addi	sp,sp,16
    80000ba2:	8082                	ret

0000000080000ba4 <memcmp>:

int
memcmp(const void *v1, const void *v2, uint n)
{
    80000ba4:	1141                	addi	sp,sp,-16
    80000ba6:	e422                	sd	s0,8(sp)
    80000ba8:	0800                	addi	s0,sp,16
  const uchar *s1, *s2;

  s1 = v1;
  s2 = v2;
  while(n-- > 0){
    80000baa:	ca05                	beqz	a2,80000bda <memcmp+0x36>
    80000bac:	fff6069b          	addiw	a3,a2,-1
    80000bb0:	1682                	slli	a3,a3,0x20
    80000bb2:	9281                	srli	a3,a3,0x20
    80000bb4:	0685                	addi	a3,a3,1
    80000bb6:	96aa                	add	a3,a3,a0
    if(*s1 != *s2)
    80000bb8:	00054783          	lbu	a5,0(a0)
    80000bbc:	0005c703          	lbu	a4,0(a1)
    80000bc0:	00e79863          	bne	a5,a4,80000bd0 <memcmp+0x2c>
      return *s1 - *s2;
    s1++, s2++;
    80000bc4:	0505                	addi	a0,a0,1
    80000bc6:	0585                	addi	a1,a1,1
  while(n-- > 0){
    80000bc8:	fed518e3          	bne	a0,a3,80000bb8 <memcmp+0x14>
  }

  return 0;
    80000bcc:	4501                	li	a0,0
    80000bce:	a019                	j	80000bd4 <memcmp+0x30>
      return *s1 - *s2;
    80000bd0:	40e7853b          	subw	a0,a5,a4
}
    80000bd4:	6422                	ld	s0,8(sp)
    80000bd6:	0141                	addi	sp,sp,16
    80000bd8:	8082                	ret
  return 0;
    80000bda:	4501                	li	a0,0
    80000bdc:	bfe5                	j	80000bd4 <memcmp+0x30>

0000000080000bde <memmove>:

void*
memmove(void *dst, const void *src, uint n)
{
    80000bde:	1141                	addi	sp,sp,-16
    80000be0:	e422                	sd	s0,8(sp)
    80000be2:	0800                	addi	s0,sp,16
  const char *s;
  char *d;

  s = src;
  d = dst;
  if(s < d && s + n > d){
    80000be4:	02a5e563          	bltu	a1,a0,80000c0e <memmove+0x30>
    s += n;
    d += n;
    while(n-- > 0)
      *--d = *--s;
  } else
    while(n-- > 0)
    80000be8:	fff6069b          	addiw	a3,a2,-1
    80000bec:	ce11                	beqz	a2,80000c08 <memmove+0x2a>
    80000bee:	1682                	slli	a3,a3,0x20
    80000bf0:	9281                	srli	a3,a3,0x20
    80000bf2:	0685                	addi	a3,a3,1
    80000bf4:	96ae                	add	a3,a3,a1
    80000bf6:	87aa                	mv	a5,a0
      *d++ = *s++;
    80000bf8:	0585                	addi	a1,a1,1
    80000bfa:	0785                	addi	a5,a5,1
    80000bfc:	fff5c703          	lbu	a4,-1(a1)
    80000c00:	fee78fa3          	sb	a4,-1(a5)
    while(n-- > 0)
    80000c04:	fed59ae3          	bne	a1,a3,80000bf8 <memmove+0x1a>

  return dst;
}
    80000c08:	6422                	ld	s0,8(sp)
    80000c0a:	0141                	addi	sp,sp,16
    80000c0c:	8082                	ret
  if(s < d && s + n > d){
    80000c0e:	02061713          	slli	a4,a2,0x20
    80000c12:	9301                	srli	a4,a4,0x20
    80000c14:	00e587b3          	add	a5,a1,a4
    80000c18:	fcf578e3          	bgeu	a0,a5,80000be8 <memmove+0xa>
    d += n;
    80000c1c:	972a                	add	a4,a4,a0
    while(n-- > 0)
    80000c1e:	fff6069b          	addiw	a3,a2,-1
    80000c22:	d27d                	beqz	a2,80000c08 <memmove+0x2a>
    80000c24:	02069613          	slli	a2,a3,0x20
    80000c28:	9201                	srli	a2,a2,0x20
    80000c2a:	fff64613          	not	a2,a2
    80000c2e:	963e                	add	a2,a2,a5
      *--d = *--s;
    80000c30:	17fd                	addi	a5,a5,-1
    80000c32:	177d                	addi	a4,a4,-1
    80000c34:	0007c683          	lbu	a3,0(a5)
    80000c38:	00d70023          	sb	a3,0(a4)
    while(n-- > 0)
    80000c3c:	fef61ae3          	bne	a2,a5,80000c30 <memmove+0x52>
    80000c40:	b7e1                	j	80000c08 <memmove+0x2a>

0000000080000c42 <memcpy>:

// memcpy exists to placate GCC.  Use memmove.
void*
memcpy(void *dst, const void *src, uint n)
{
    80000c42:	1141                	addi	sp,sp,-16
    80000c44:	e406                	sd	ra,8(sp)
    80000c46:	e022                	sd	s0,0(sp)
    80000c48:	0800                	addi	s0,sp,16
  return memmove(dst, src, n);
    80000c4a:	00000097          	auipc	ra,0x0
    80000c4e:	f94080e7          	jalr	-108(ra) # 80000bde <memmove>
}
    80000c52:	60a2                	ld	ra,8(sp)
    80000c54:	6402                	ld	s0,0(sp)
    80000c56:	0141                	addi	sp,sp,16
    80000c58:	8082                	ret

0000000080000c5a <strncmp>:

int
strncmp(const char *p, const char *q, uint n)
{
    80000c5a:	1141                	addi	sp,sp,-16
    80000c5c:	e422                	sd	s0,8(sp)
    80000c5e:	0800                	addi	s0,sp,16
  while(n > 0 && *p && *p == *q)
    80000c60:	ce11                	beqz	a2,80000c7c <strncmp+0x22>
    80000c62:	00054783          	lbu	a5,0(a0)
    80000c66:	cf89                	beqz	a5,80000c80 <strncmp+0x26>
    80000c68:	0005c703          	lbu	a4,0(a1)
    80000c6c:	00f71a63          	bne	a4,a5,80000c80 <strncmp+0x26>
    n--, p++, q++;
    80000c70:	367d                	addiw	a2,a2,-1
    80000c72:	0505                	addi	a0,a0,1
    80000c74:	0585                	addi	a1,a1,1
  while(n > 0 && *p && *p == *q)
    80000c76:	f675                	bnez	a2,80000c62 <strncmp+0x8>
  if(n == 0)
    return 0;
    80000c78:	4501                	li	a0,0
    80000c7a:	a809                	j	80000c8c <strncmp+0x32>
    80000c7c:	4501                	li	a0,0
    80000c7e:	a039                	j	80000c8c <strncmp+0x32>
  if(n == 0)
    80000c80:	ca09                	beqz	a2,80000c92 <strncmp+0x38>
  return (uchar)*p - (uchar)*q;
    80000c82:	00054503          	lbu	a0,0(a0)
    80000c86:	0005c783          	lbu	a5,0(a1)
    80000c8a:	9d1d                	subw	a0,a0,a5
}
    80000c8c:	6422                	ld	s0,8(sp)
    80000c8e:	0141                	addi	sp,sp,16
    80000c90:	8082                	ret
    return 0;
    80000c92:	4501                	li	a0,0
    80000c94:	bfe5                	j	80000c8c <strncmp+0x32>

0000000080000c96 <strncpy>:

char*
strncpy(char *s, const char *t, int n)
{
    80000c96:	1141                	addi	sp,sp,-16
    80000c98:	e422                	sd	s0,8(sp)
    80000c9a:	0800                	addi	s0,sp,16
  char *os;

  os = s;
  while(n-- > 0 && (*s++ = *t++) != 0)
    80000c9c:	872a                	mv	a4,a0
    80000c9e:	8832                	mv	a6,a2
    80000ca0:	367d                	addiw	a2,a2,-1
    80000ca2:	01005963          	blez	a6,80000cb4 <strncpy+0x1e>
    80000ca6:	0705                	addi	a4,a4,1
    80000ca8:	0005c783          	lbu	a5,0(a1)
    80000cac:	fef70fa3          	sb	a5,-1(a4)
    80000cb0:	0585                	addi	a1,a1,1
    80000cb2:	f7f5                	bnez	a5,80000c9e <strncpy+0x8>
    ;
  while(n-- > 0)
    80000cb4:	86ba                	mv	a3,a4
    80000cb6:	00c05c63          	blez	a2,80000cce <strncpy+0x38>
    *s++ = 0;
    80000cba:	0685                	addi	a3,a3,1
    80000cbc:	fe068fa3          	sb	zero,-1(a3)
  while(n-- > 0)
    80000cc0:	fff6c793          	not	a5,a3
    80000cc4:	9fb9                	addw	a5,a5,a4
    80000cc6:	010787bb          	addw	a5,a5,a6
    80000cca:	fef048e3          	bgtz	a5,80000cba <strncpy+0x24>
  return os;
}
    80000cce:	6422                	ld	s0,8(sp)
    80000cd0:	0141                	addi	sp,sp,16
    80000cd2:	8082                	ret

0000000080000cd4 <safestrcpy>:

// Like strncpy but guaranteed to NUL-terminate.
char*
safestrcpy(char *s, const char *t, int n)
{
    80000cd4:	1141                	addi	sp,sp,-16
    80000cd6:	e422                	sd	s0,8(sp)
    80000cd8:	0800                	addi	s0,sp,16
  char *os;

  os = s;
  if(n <= 0)
    80000cda:	02c05363          	blez	a2,80000d00 <safestrcpy+0x2c>
    80000cde:	fff6069b          	addiw	a3,a2,-1
    80000ce2:	1682                	slli	a3,a3,0x20
    80000ce4:	9281                	srli	a3,a3,0x20
    80000ce6:	96ae                	add	a3,a3,a1
    80000ce8:	87aa                	mv	a5,a0
    return os;
  while(--n > 0 && (*s++ = *t++) != 0)
    80000cea:	00d58963          	beq	a1,a3,80000cfc <safestrcpy+0x28>
    80000cee:	0585                	addi	a1,a1,1
    80000cf0:	0785                	addi	a5,a5,1
    80000cf2:	fff5c703          	lbu	a4,-1(a1)
    80000cf6:	fee78fa3          	sb	a4,-1(a5)
    80000cfa:	fb65                	bnez	a4,80000cea <safestrcpy+0x16>
    ;
  *s = 0;
    80000cfc:	00078023          	sb	zero,0(a5)
  return os;
}
    80000d00:	6422                	ld	s0,8(sp)
    80000d02:	0141                	addi	sp,sp,16
    80000d04:	8082                	ret

0000000080000d06 <strlen>:

int
strlen(const char *s)
{
    80000d06:	1141                	addi	sp,sp,-16
    80000d08:	e422                	sd	s0,8(sp)
    80000d0a:	0800                	addi	s0,sp,16
  int n;

  for(n = 0; s[n]; n++)
    80000d0c:	00054783          	lbu	a5,0(a0)
    80000d10:	cf91                	beqz	a5,80000d2c <strlen+0x26>
    80000d12:	0505                	addi	a0,a0,1
    80000d14:	87aa                	mv	a5,a0
    80000d16:	4685                	li	a3,1
    80000d18:	9e89                	subw	a3,a3,a0
    80000d1a:	00f6853b          	addw	a0,a3,a5
    80000d1e:	0785                	addi	a5,a5,1
    80000d20:	fff7c703          	lbu	a4,-1(a5)
    80000d24:	fb7d                	bnez	a4,80000d1a <strlen+0x14>
    ;
  return n;
}
    80000d26:	6422                	ld	s0,8(sp)
    80000d28:	0141                	addi	sp,sp,16
    80000d2a:	8082                	ret
  for(n = 0; s[n]; n++)
    80000d2c:	4501                	li	a0,0
    80000d2e:	bfe5                	j	80000d26 <strlen+0x20>

0000000080000d30 <main>:
volatile static int started = 0;

// start() jumps here in supervisor mode on all CPUs.
void
main()
{
    80000d30:	1141                	addi	sp,sp,-16
    80000d32:	e406                	sd	ra,8(sp)
    80000d34:	e022                	sd	s0,0(sp)
    80000d36:	0800                	addi	s0,sp,16
  if(cpuid() == 0){
    80000d38:	00001097          	auipc	ra,0x1
    80000d3c:	aba080e7          	jalr	-1350(ra) # 800017f2 <cpuid>
    virtio_disk_init(minor(ROOTDEV)); // emulated hard disk
    userinit();      // first user process
    __sync_synchronize();
    started = 1;
  } else {
    while(started == 0)
    80000d40:	00028717          	auipc	a4,0x28
    80000d44:	2d070713          	addi	a4,a4,720 # 80029010 <started>
  if(cpuid() == 0){
    80000d48:	c139                	beqz	a0,80000d8e <main+0x5e>
    while(started == 0)
    80000d4a:	431c                	lw	a5,0(a4)
    80000d4c:	2781                	sext.w	a5,a5
    80000d4e:	dff5                	beqz	a5,80000d4a <main+0x1a>
      ;
    __sync_synchronize();
    80000d50:	0ff0000f          	fence
    printf("hart %d starting\n", cpuid());
    80000d54:	00001097          	auipc	ra,0x1
    80000d58:	a9e080e7          	jalr	-1378(ra) # 800017f2 <cpuid>
    80000d5c:	85aa                	mv	a1,a0
    80000d5e:	00006517          	auipc	a0,0x6
    80000d62:	44250513          	addi	a0,a0,1090 # 800071a0 <userret+0x110>
    80000d66:	00000097          	auipc	ra,0x0
    80000d6a:	82c080e7          	jalr	-2004(ra) # 80000592 <printf>
    kvminithart();    // turn on paging
    80000d6e:	00000097          	auipc	ra,0x0
    80000d72:	1ea080e7          	jalr	490(ra) # 80000f58 <kvminithart>
    trapinithart();   // install kernel trap vector
    80000d76:	00001097          	auipc	ra,0x1
    80000d7a:	6c0080e7          	jalr	1728(ra) # 80002436 <trapinithart>
    plicinithart();   // ask PLIC for device interrupts
    80000d7e:	00005097          	auipc	ra,0x5
    80000d82:	eb2080e7          	jalr	-334(ra) # 80005c30 <plicinithart>
  }

  scheduler();        
    80000d86:	00001097          	auipc	ra,0x1
    80000d8a:	fda080e7          	jalr	-38(ra) # 80001d60 <scheduler>
    consoleinit();
    80000d8e:	fffff097          	auipc	ra,0xfffff
    80000d92:	6cc080e7          	jalr	1740(ra) # 8000045a <consoleinit>
    printfinit();
    80000d96:	00000097          	auipc	ra,0x0
    80000d9a:	9dc080e7          	jalr	-1572(ra) # 80000772 <printfinit>
    printf("\n");
    80000d9e:	00006517          	auipc	a0,0x6
    80000da2:	41250513          	addi	a0,a0,1042 # 800071b0 <userret+0x120>
    80000da6:	fffff097          	auipc	ra,0xfffff
    80000daa:	7ec080e7          	jalr	2028(ra) # 80000592 <printf>
    printf("xv6 kernel is booting\n");
    80000dae:	00006517          	auipc	a0,0x6
    80000db2:	3da50513          	addi	a0,a0,986 # 80007188 <userret+0xf8>
    80000db6:	fffff097          	auipc	ra,0xfffff
    80000dba:	7dc080e7          	jalr	2012(ra) # 80000592 <printf>
    printf("\n");
    80000dbe:	00006517          	auipc	a0,0x6
    80000dc2:	3f250513          	addi	a0,a0,1010 # 800071b0 <userret+0x120>
    80000dc6:	fffff097          	auipc	ra,0xfffff
    80000dca:	7cc080e7          	jalr	1996(ra) # 80000592 <printf>
    kinit();         // physical page allocator
    80000dce:	00000097          	auipc	ra,0x0
    80000dd2:	b46080e7          	jalr	-1210(ra) # 80000914 <kinit>
    kvminit();       // create kernel page table
    80000dd6:	00000097          	auipc	ra,0x0
    80000dda:	300080e7          	jalr	768(ra) # 800010d6 <kvminit>
    kvminithart();   // turn on paging
    80000dde:	00000097          	auipc	ra,0x0
    80000de2:	17a080e7          	jalr	378(ra) # 80000f58 <kvminithart>
    procinit();      // process table
    80000de6:	00001097          	auipc	ra,0x1
    80000dea:	93c080e7          	jalr	-1732(ra) # 80001722 <procinit>
    trapinit();      // trap vectors
    80000dee:	00001097          	auipc	ra,0x1
    80000df2:	620080e7          	jalr	1568(ra) # 8000240e <trapinit>
    trapinithart();  // install kernel trap vector
    80000df6:	00001097          	auipc	ra,0x1
    80000dfa:	640080e7          	jalr	1600(ra) # 80002436 <trapinithart>
    plicinit();      // set up interrupt controller
    80000dfe:	00005097          	auipc	ra,0x5
    80000e02:	e1c080e7          	jalr	-484(ra) # 80005c1a <plicinit>
    plicinithart();  // ask PLIC for device interrupts
    80000e06:	00005097          	auipc	ra,0x5
    80000e0a:	e2a080e7          	jalr	-470(ra) # 80005c30 <plicinithart>
    binit();         // buffer cache
    80000e0e:	00002097          	auipc	ra,0x2
    80000e12:	d2c080e7          	jalr	-724(ra) # 80002b3a <binit>
    iinit();         // inode cache
    80000e16:	00002097          	auipc	ra,0x2
    80000e1a:	3c2080e7          	jalr	962(ra) # 800031d8 <iinit>
    fileinit();      // file table
    80000e1e:	00003097          	auipc	ra,0x3
    80000e22:	5a0080e7          	jalr	1440(ra) # 800043be <fileinit>
    virtio_disk_init(minor(ROOTDEV)); // emulated hard disk
    80000e26:	4501                	li	a0,0
    80000e28:	00005097          	auipc	ra,0x5
    80000e2c:	f3c080e7          	jalr	-196(ra) # 80005d64 <virtio_disk_init>
    userinit();      // first user process
    80000e30:	00001097          	auipc	ra,0x1
    80000e34:	c5e080e7          	jalr	-930(ra) # 80001a8e <userinit>
    __sync_synchronize();
    80000e38:	0ff0000f          	fence
    started = 1;
    80000e3c:	4785                	li	a5,1
    80000e3e:	00028717          	auipc	a4,0x28
    80000e42:	1cf72923          	sw	a5,466(a4) # 80029010 <started>
    80000e46:	b781                	j	80000d86 <main+0x56>

0000000080000e48 <walk>:
//   21..39 -- 9 bits of level-1 index.
//   12..20 -- 9 bits of level-0 index.
//    0..12 -- 12 bits of byte offset within the page.
static pte_t *
walk(pagetable_t pagetable, uint64 va, int alloc)
{
    80000e48:	7139                	addi	sp,sp,-64
    80000e4a:	fc06                	sd	ra,56(sp)
    80000e4c:	f822                	sd	s0,48(sp)
    80000e4e:	f426                	sd	s1,40(sp)
    80000e50:	f04a                	sd	s2,32(sp)
    80000e52:	ec4e                	sd	s3,24(sp)
    80000e54:	e852                	sd	s4,16(sp)
    80000e56:	e456                	sd	s5,8(sp)
    80000e58:	e05a                	sd	s6,0(sp)
    80000e5a:	0080                	addi	s0,sp,64
    80000e5c:	84aa                	mv	s1,a0
    80000e5e:	89ae                	mv	s3,a1
    80000e60:	8ab2                	mv	s5,a2
  if(va >= MAXVA)
    80000e62:	57fd                	li	a5,-1
    80000e64:	83e9                	srli	a5,a5,0x1a
    80000e66:	4a79                	li	s4,30
    panic("walk");

  for(int level = 2; level > 0; level--) {
    80000e68:	4b31                	li	s6,12
  if(va >= MAXVA)
    80000e6a:	04b7f263          	bgeu	a5,a1,80000eae <walk+0x66>
    panic("walk");
    80000e6e:	00006517          	auipc	a0,0x6
    80000e72:	34a50513          	addi	a0,a0,842 # 800071b8 <userret+0x128>
    80000e76:	fffff097          	auipc	ra,0xfffff
    80000e7a:	6d2080e7          	jalr	1746(ra) # 80000548 <panic>
    pte_t *pte = &pagetable[PX(level, va)];
    if(*pte & PTE_V) {
      pagetable = (pagetable_t)PTE2PA(*pte);
    } else {
      if(!alloc || (pagetable = (pde_t*)kalloc()) == 0)
    80000e7e:	060a8663          	beqz	s5,80000eea <walk+0xa2>
    80000e82:	00000097          	auipc	ra,0x0
    80000e86:	ace080e7          	jalr	-1330(ra) # 80000950 <kalloc>
    80000e8a:	84aa                	mv	s1,a0
    80000e8c:	c529                	beqz	a0,80000ed6 <walk+0x8e>
        return 0;
      memset(pagetable, 0, PGSIZE);
    80000e8e:	6605                	lui	a2,0x1
    80000e90:	4581                	li	a1,0
    80000e92:	00000097          	auipc	ra,0x0
    80000e96:	cf0080e7          	jalr	-784(ra) # 80000b82 <memset>
      *pte = PA2PTE(pagetable) | PTE_V;
    80000e9a:	00c4d793          	srli	a5,s1,0xc
    80000e9e:	07aa                	slli	a5,a5,0xa
    80000ea0:	0017e793          	ori	a5,a5,1
    80000ea4:	00f93023          	sd	a5,0(s2)
  for(int level = 2; level > 0; level--) {
    80000ea8:	3a5d                	addiw	s4,s4,-9
    80000eaa:	036a0063          	beq	s4,s6,80000eca <walk+0x82>
    pte_t *pte = &pagetable[PX(level, va)];
    80000eae:	0149d933          	srl	s2,s3,s4
    80000eb2:	1ff97913          	andi	s2,s2,511
    80000eb6:	090e                	slli	s2,s2,0x3
    80000eb8:	9926                	add	s2,s2,s1
    if(*pte & PTE_V) {
    80000eba:	00093483          	ld	s1,0(s2)
    80000ebe:	0014f793          	andi	a5,s1,1
    80000ec2:	dfd5                	beqz	a5,80000e7e <walk+0x36>
      pagetable = (pagetable_t)PTE2PA(*pte);
    80000ec4:	80a9                	srli	s1,s1,0xa
    80000ec6:	04b2                	slli	s1,s1,0xc
    80000ec8:	b7c5                	j	80000ea8 <walk+0x60>
    }
  }
  return &pagetable[PX(0, va)];
    80000eca:	00c9d513          	srli	a0,s3,0xc
    80000ece:	1ff57513          	andi	a0,a0,511
    80000ed2:	050e                	slli	a0,a0,0x3
    80000ed4:	9526                	add	a0,a0,s1
}
    80000ed6:	70e2                	ld	ra,56(sp)
    80000ed8:	7442                	ld	s0,48(sp)
    80000eda:	74a2                	ld	s1,40(sp)
    80000edc:	7902                	ld	s2,32(sp)
    80000ede:	69e2                	ld	s3,24(sp)
    80000ee0:	6a42                	ld	s4,16(sp)
    80000ee2:	6aa2                	ld	s5,8(sp)
    80000ee4:	6b02                	ld	s6,0(sp)
    80000ee6:	6121                	addi	sp,sp,64
    80000ee8:	8082                	ret
        return 0;
    80000eea:	4501                	li	a0,0
    80000eec:	b7ed                	j	80000ed6 <walk+0x8e>

0000000080000eee <freewalk>:

// Recursively free page-table pages.
// All leaf mappings must already have been removed.
static void
freewalk(pagetable_t pagetable)
{
    80000eee:	7179                	addi	sp,sp,-48
    80000ef0:	f406                	sd	ra,40(sp)
    80000ef2:	f022                	sd	s0,32(sp)
    80000ef4:	ec26                	sd	s1,24(sp)
    80000ef6:	e84a                	sd	s2,16(sp)
    80000ef8:	e44e                	sd	s3,8(sp)
    80000efa:	e052                	sd	s4,0(sp)
    80000efc:	1800                	addi	s0,sp,48
    80000efe:	8a2a                	mv	s4,a0
  // there are 2^9 = 512 PTEs in a page table.
  for(int i = 0; i < 512; i++){
    80000f00:	84aa                	mv	s1,a0
    80000f02:	6905                	lui	s2,0x1
    80000f04:	992a                	add	s2,s2,a0
    pte_t pte = pagetable[i];
    if((pte & PTE_V) && (pte & (PTE_R|PTE_W|PTE_X)) == 0){
    80000f06:	4985                	li	s3,1
    80000f08:	a821                	j	80000f20 <freewalk+0x32>
      // this PTE points to a lower-level page table.
      uint64 child = PTE2PA(pte);
    80000f0a:	8129                	srli	a0,a0,0xa
      freewalk((pagetable_t)child);
    80000f0c:	0532                	slli	a0,a0,0xc
    80000f0e:	00000097          	auipc	ra,0x0
    80000f12:	fe0080e7          	jalr	-32(ra) # 80000eee <freewalk>
      pagetable[i] = 0;
    80000f16:	0004b023          	sd	zero,0(s1)
  for(int i = 0; i < 512; i++){
    80000f1a:	04a1                	addi	s1,s1,8
    80000f1c:	03248163          	beq	s1,s2,80000f3e <freewalk+0x50>
    pte_t pte = pagetable[i];
    80000f20:	6088                	ld	a0,0(s1)
    if((pte & PTE_V) && (pte & (PTE_R|PTE_W|PTE_X)) == 0){
    80000f22:	00f57793          	andi	a5,a0,15
    80000f26:	ff3782e3          	beq	a5,s3,80000f0a <freewalk+0x1c>
    } else if(pte & PTE_V){
    80000f2a:	8905                	andi	a0,a0,1
    80000f2c:	d57d                	beqz	a0,80000f1a <freewalk+0x2c>
      panic("freewalk: leaf");
    80000f2e:	00006517          	auipc	a0,0x6
    80000f32:	29250513          	addi	a0,a0,658 # 800071c0 <userret+0x130>
    80000f36:	fffff097          	auipc	ra,0xfffff
    80000f3a:	612080e7          	jalr	1554(ra) # 80000548 <panic>
    }
  }
  kfree((void*)pagetable);
    80000f3e:	8552                	mv	a0,s4
    80000f40:	00000097          	auipc	ra,0x0
    80000f44:	914080e7          	jalr	-1772(ra) # 80000854 <kfree>
}
    80000f48:	70a2                	ld	ra,40(sp)
    80000f4a:	7402                	ld	s0,32(sp)
    80000f4c:	64e2                	ld	s1,24(sp)
    80000f4e:	6942                	ld	s2,16(sp)
    80000f50:	69a2                	ld	s3,8(sp)
    80000f52:	6a02                	ld	s4,0(sp)
    80000f54:	6145                	addi	sp,sp,48
    80000f56:	8082                	ret

0000000080000f58 <kvminithart>:
{
    80000f58:	1141                	addi	sp,sp,-16
    80000f5a:	e422                	sd	s0,8(sp)
    80000f5c:	0800                	addi	s0,sp,16
  w_satp(MAKE_SATP(kernel_pagetable));
    80000f5e:	00028797          	auipc	a5,0x28
    80000f62:	0ba7b783          	ld	a5,186(a5) # 80029018 <kernel_pagetable>
    80000f66:	83b1                	srli	a5,a5,0xc
    80000f68:	577d                	li	a4,-1
    80000f6a:	177e                	slli	a4,a4,0x3f
    80000f6c:	8fd9                	or	a5,a5,a4
  asm volatile("csrw satp, %0" : : "r" (x));
    80000f6e:	18079073          	csrw	satp,a5
// flush the TLB.
static inline void
sfence_vma()
{
  // the zero, zero means flush all TLB entries.
  asm volatile("sfence.vma zero, zero");
    80000f72:	12000073          	sfence.vma
}
    80000f76:	6422                	ld	s0,8(sp)
    80000f78:	0141                	addi	sp,sp,16
    80000f7a:	8082                	ret

0000000080000f7c <walkaddr>:
{
    80000f7c:	1141                	addi	sp,sp,-16
    80000f7e:	e406                	sd	ra,8(sp)
    80000f80:	e022                	sd	s0,0(sp)
    80000f82:	0800                	addi	s0,sp,16
  pte = walk(pagetable, va, 0);
    80000f84:	4601                	li	a2,0
    80000f86:	00000097          	auipc	ra,0x0
    80000f8a:	ec2080e7          	jalr	-318(ra) # 80000e48 <walk>
  if(pte == 0)
    80000f8e:	c105                	beqz	a0,80000fae <walkaddr+0x32>
  if((*pte & PTE_V) == 0)
    80000f90:	611c                	ld	a5,0(a0)
  if((*pte & PTE_U) == 0)
    80000f92:	0117f693          	andi	a3,a5,17
    80000f96:	4745                	li	a4,17
    return 0;
    80000f98:	4501                	li	a0,0
  if((*pte & PTE_U) == 0)
    80000f9a:	00e68663          	beq	a3,a4,80000fa6 <walkaddr+0x2a>
}
    80000f9e:	60a2                	ld	ra,8(sp)
    80000fa0:	6402                	ld	s0,0(sp)
    80000fa2:	0141                	addi	sp,sp,16
    80000fa4:	8082                	ret
  pa = PTE2PA(*pte);
    80000fa6:	83a9                	srli	a5,a5,0xa
    80000fa8:	00c79513          	slli	a0,a5,0xc
  return pa;
    80000fac:	bfcd                	j	80000f9e <walkaddr+0x22>
    return 0;
    80000fae:	4501                	li	a0,0
    80000fb0:	b7fd                	j	80000f9e <walkaddr+0x22>

0000000080000fb2 <kvmpa>:
{
    80000fb2:	1101                	addi	sp,sp,-32
    80000fb4:	ec06                	sd	ra,24(sp)
    80000fb6:	e822                	sd	s0,16(sp)
    80000fb8:	e426                	sd	s1,8(sp)
    80000fba:	1000                	addi	s0,sp,32
    80000fbc:	85aa                	mv	a1,a0
  uint64 off = va % PGSIZE;
    80000fbe:	1552                	slli	a0,a0,0x34
    80000fc0:	03455493          	srli	s1,a0,0x34
  pte = walk(kernel_pagetable, va, 0);
    80000fc4:	4601                	li	a2,0
    80000fc6:	00028517          	auipc	a0,0x28
    80000fca:	05253503          	ld	a0,82(a0) # 80029018 <kernel_pagetable>
    80000fce:	00000097          	auipc	ra,0x0
    80000fd2:	e7a080e7          	jalr	-390(ra) # 80000e48 <walk>
  if(pte == 0)
    80000fd6:	cd09                	beqz	a0,80000ff0 <kvmpa+0x3e>
  if((*pte & PTE_V) == 0)
    80000fd8:	6108                	ld	a0,0(a0)
    80000fda:	00157793          	andi	a5,a0,1
    80000fde:	c38d                	beqz	a5,80001000 <kvmpa+0x4e>
  pa = PTE2PA(*pte);
    80000fe0:	8129                	srli	a0,a0,0xa
    80000fe2:	0532                	slli	a0,a0,0xc
}
    80000fe4:	9526                	add	a0,a0,s1
    80000fe6:	60e2                	ld	ra,24(sp)
    80000fe8:	6442                	ld	s0,16(sp)
    80000fea:	64a2                	ld	s1,8(sp)
    80000fec:	6105                	addi	sp,sp,32
    80000fee:	8082                	ret
    panic("kvmpa");
    80000ff0:	00006517          	auipc	a0,0x6
    80000ff4:	1e050513          	addi	a0,a0,480 # 800071d0 <userret+0x140>
    80000ff8:	fffff097          	auipc	ra,0xfffff
    80000ffc:	550080e7          	jalr	1360(ra) # 80000548 <panic>
    panic("kvmpa");
    80001000:	00006517          	auipc	a0,0x6
    80001004:	1d050513          	addi	a0,a0,464 # 800071d0 <userret+0x140>
    80001008:	fffff097          	auipc	ra,0xfffff
    8000100c:	540080e7          	jalr	1344(ra) # 80000548 <panic>

0000000080001010 <mappages>:
{
    80001010:	715d                	addi	sp,sp,-80
    80001012:	e486                	sd	ra,72(sp)
    80001014:	e0a2                	sd	s0,64(sp)
    80001016:	fc26                	sd	s1,56(sp)
    80001018:	f84a                	sd	s2,48(sp)
    8000101a:	f44e                	sd	s3,40(sp)
    8000101c:	f052                	sd	s4,32(sp)
    8000101e:	ec56                	sd	s5,24(sp)
    80001020:	e85a                	sd	s6,16(sp)
    80001022:	e45e                	sd	s7,8(sp)
    80001024:	0880                	addi	s0,sp,80
    80001026:	8aaa                	mv	s5,a0
    80001028:	8b3a                	mv	s6,a4
  a = PGROUNDDOWN(va);
    8000102a:	777d                	lui	a4,0xfffff
    8000102c:	00e5f7b3          	and	a5,a1,a4
  last = PGROUNDDOWN(va + size - 1);
    80001030:	167d                	addi	a2,a2,-1
    80001032:	00b609b3          	add	s3,a2,a1
    80001036:	00e9f9b3          	and	s3,s3,a4
  a = PGROUNDDOWN(va);
    8000103a:	893e                	mv	s2,a5
    8000103c:	40f68a33          	sub	s4,a3,a5
    a += PGSIZE;
    80001040:	6b85                	lui	s7,0x1
    80001042:	012a04b3          	add	s1,s4,s2
    if((pte = walk(pagetable, a, 1)) == 0)
    80001046:	4605                	li	a2,1
    80001048:	85ca                	mv	a1,s2
    8000104a:	8556                	mv	a0,s5
    8000104c:	00000097          	auipc	ra,0x0
    80001050:	dfc080e7          	jalr	-516(ra) # 80000e48 <walk>
    80001054:	c51d                	beqz	a0,80001082 <mappages+0x72>
    if(*pte & PTE_V)
    80001056:	611c                	ld	a5,0(a0)
    80001058:	8b85                	andi	a5,a5,1
    8000105a:	ef81                	bnez	a5,80001072 <mappages+0x62>
    *pte = PA2PTE(pa) | perm | PTE_V;
    8000105c:	80b1                	srli	s1,s1,0xc
    8000105e:	04aa                	slli	s1,s1,0xa
    80001060:	0164e4b3          	or	s1,s1,s6
    80001064:	0014e493          	ori	s1,s1,1
    80001068:	e104                	sd	s1,0(a0)
    if(a == last)
    8000106a:	03390863          	beq	s2,s3,8000109a <mappages+0x8a>
    a += PGSIZE;
    8000106e:	995e                	add	s2,s2,s7
    if((pte = walk(pagetable, a, 1)) == 0)
    80001070:	bfc9                	j	80001042 <mappages+0x32>
      panic("remap");
    80001072:	00006517          	auipc	a0,0x6
    80001076:	16650513          	addi	a0,a0,358 # 800071d8 <userret+0x148>
    8000107a:	fffff097          	auipc	ra,0xfffff
    8000107e:	4ce080e7          	jalr	1230(ra) # 80000548 <panic>
      return -1;
    80001082:	557d                	li	a0,-1
}
    80001084:	60a6                	ld	ra,72(sp)
    80001086:	6406                	ld	s0,64(sp)
    80001088:	74e2                	ld	s1,56(sp)
    8000108a:	7942                	ld	s2,48(sp)
    8000108c:	79a2                	ld	s3,40(sp)
    8000108e:	7a02                	ld	s4,32(sp)
    80001090:	6ae2                	ld	s5,24(sp)
    80001092:	6b42                	ld	s6,16(sp)
    80001094:	6ba2                	ld	s7,8(sp)
    80001096:	6161                	addi	sp,sp,80
    80001098:	8082                	ret
  return 0;
    8000109a:	4501                	li	a0,0
    8000109c:	b7e5                	j	80001084 <mappages+0x74>

000000008000109e <kvmmap>:
{
    8000109e:	1141                	addi	sp,sp,-16
    800010a0:	e406                	sd	ra,8(sp)
    800010a2:	e022                	sd	s0,0(sp)
    800010a4:	0800                	addi	s0,sp,16
    800010a6:	8736                	mv	a4,a3
  if(mappages(kernel_pagetable, va, sz, pa, perm) != 0)
    800010a8:	86ae                	mv	a3,a1
    800010aa:	85aa                	mv	a1,a0
    800010ac:	00028517          	auipc	a0,0x28
    800010b0:	f6c53503          	ld	a0,-148(a0) # 80029018 <kernel_pagetable>
    800010b4:	00000097          	auipc	ra,0x0
    800010b8:	f5c080e7          	jalr	-164(ra) # 80001010 <mappages>
    800010bc:	e509                	bnez	a0,800010c6 <kvmmap+0x28>
}
    800010be:	60a2                	ld	ra,8(sp)
    800010c0:	6402                	ld	s0,0(sp)
    800010c2:	0141                	addi	sp,sp,16
    800010c4:	8082                	ret
    panic("kvmmap");
    800010c6:	00006517          	auipc	a0,0x6
    800010ca:	11a50513          	addi	a0,a0,282 # 800071e0 <userret+0x150>
    800010ce:	fffff097          	auipc	ra,0xfffff
    800010d2:	47a080e7          	jalr	1146(ra) # 80000548 <panic>

00000000800010d6 <kvminit>:
{
    800010d6:	1101                	addi	sp,sp,-32
    800010d8:	ec06                	sd	ra,24(sp)
    800010da:	e822                	sd	s0,16(sp)
    800010dc:	e426                	sd	s1,8(sp)
    800010de:	1000                	addi	s0,sp,32
  kernel_pagetable = (pagetable_t) kalloc();
    800010e0:	00000097          	auipc	ra,0x0
    800010e4:	870080e7          	jalr	-1936(ra) # 80000950 <kalloc>
    800010e8:	00028797          	auipc	a5,0x28
    800010ec:	f2a7b823          	sd	a0,-208(a5) # 80029018 <kernel_pagetable>
  memset(kernel_pagetable, 0, PGSIZE);
    800010f0:	6605                	lui	a2,0x1
    800010f2:	4581                	li	a1,0
    800010f4:	00000097          	auipc	ra,0x0
    800010f8:	a8e080e7          	jalr	-1394(ra) # 80000b82 <memset>
  kvmmap(UART0, UART0, PGSIZE, PTE_R | PTE_W);
    800010fc:	4699                	li	a3,6
    800010fe:	6605                	lui	a2,0x1
    80001100:	100005b7          	lui	a1,0x10000
    80001104:	10000537          	lui	a0,0x10000
    80001108:	00000097          	auipc	ra,0x0
    8000110c:	f96080e7          	jalr	-106(ra) # 8000109e <kvmmap>
  kvmmap(VIRTION(0), VIRTION(0), PGSIZE, PTE_R | PTE_W);
    80001110:	4699                	li	a3,6
    80001112:	6605                	lui	a2,0x1
    80001114:	100015b7          	lui	a1,0x10001
    80001118:	10001537          	lui	a0,0x10001
    8000111c:	00000097          	auipc	ra,0x0
    80001120:	f82080e7          	jalr	-126(ra) # 8000109e <kvmmap>
  kvmmap(VIRTION(1), VIRTION(1), PGSIZE, PTE_R | PTE_W);
    80001124:	4699                	li	a3,6
    80001126:	6605                	lui	a2,0x1
    80001128:	100025b7          	lui	a1,0x10002
    8000112c:	10002537          	lui	a0,0x10002
    80001130:	00000097          	auipc	ra,0x0
    80001134:	f6e080e7          	jalr	-146(ra) # 8000109e <kvmmap>
  kvmmap(CLINT, CLINT, 0x10000, PTE_R | PTE_W);
    80001138:	4699                	li	a3,6
    8000113a:	6641                	lui	a2,0x10
    8000113c:	020005b7          	lui	a1,0x2000
    80001140:	02000537          	lui	a0,0x2000
    80001144:	00000097          	auipc	ra,0x0
    80001148:	f5a080e7          	jalr	-166(ra) # 8000109e <kvmmap>
  kvmmap(PLIC, PLIC, 0x400000, PTE_R | PTE_W);
    8000114c:	4699                	li	a3,6
    8000114e:	00400637          	lui	a2,0x400
    80001152:	0c0005b7          	lui	a1,0xc000
    80001156:	0c000537          	lui	a0,0xc000
    8000115a:	00000097          	auipc	ra,0x0
    8000115e:	f44080e7          	jalr	-188(ra) # 8000109e <kvmmap>
  kvmmap(KERNBASE, KERNBASE, (uint64)etext-KERNBASE, PTE_R | PTE_X);
    80001162:	00007497          	auipc	s1,0x7
    80001166:	e9e48493          	addi	s1,s1,-354 # 80008000 <initcode>
    8000116a:	46a9                	li	a3,10
    8000116c:	80007617          	auipc	a2,0x80007
    80001170:	e9460613          	addi	a2,a2,-364 # 8000 <_entry-0x7fff8000>
    80001174:	4585                	li	a1,1
    80001176:	05fe                	slli	a1,a1,0x1f
    80001178:	852e                	mv	a0,a1
    8000117a:	00000097          	auipc	ra,0x0
    8000117e:	f24080e7          	jalr	-220(ra) # 8000109e <kvmmap>
  kvmmap((uint64)etext, (uint64)etext, PHYSTOP-(uint64)etext, PTE_R | PTE_W);
    80001182:	4699                	li	a3,6
    80001184:	4645                	li	a2,17
    80001186:	066e                	slli	a2,a2,0x1b
    80001188:	8e05                	sub	a2,a2,s1
    8000118a:	85a6                	mv	a1,s1
    8000118c:	8526                	mv	a0,s1
    8000118e:	00000097          	auipc	ra,0x0
    80001192:	f10080e7          	jalr	-240(ra) # 8000109e <kvmmap>
  kvmmap(TRAMPOLINE, (uint64)trampoline, PGSIZE, PTE_R | PTE_X);
    80001196:	46a9                	li	a3,10
    80001198:	6605                	lui	a2,0x1
    8000119a:	00006597          	auipc	a1,0x6
    8000119e:	e6658593          	addi	a1,a1,-410 # 80007000 <trampoline>
    800011a2:	04000537          	lui	a0,0x4000
    800011a6:	157d                	addi	a0,a0,-1
    800011a8:	0532                	slli	a0,a0,0xc
    800011aa:	00000097          	auipc	ra,0x0
    800011ae:	ef4080e7          	jalr	-268(ra) # 8000109e <kvmmap>
}
    800011b2:	60e2                	ld	ra,24(sp)
    800011b4:	6442                	ld	s0,16(sp)
    800011b6:	64a2                	ld	s1,8(sp)
    800011b8:	6105                	addi	sp,sp,32
    800011ba:	8082                	ret

00000000800011bc <uvmunmap>:
{
    800011bc:	715d                	addi	sp,sp,-80
    800011be:	e486                	sd	ra,72(sp)
    800011c0:	e0a2                	sd	s0,64(sp)
    800011c2:	fc26                	sd	s1,56(sp)
    800011c4:	f84a                	sd	s2,48(sp)
    800011c6:	f44e                	sd	s3,40(sp)
    800011c8:	f052                	sd	s4,32(sp)
    800011ca:	ec56                	sd	s5,24(sp)
    800011cc:	e85a                	sd	s6,16(sp)
    800011ce:	e45e                	sd	s7,8(sp)
    800011d0:	0880                	addi	s0,sp,80
    800011d2:	8a2a                	mv	s4,a0
    800011d4:	8ab6                	mv	s5,a3
  a = PGROUNDDOWN(va);
    800011d6:	77fd                	lui	a5,0xfffff
    800011d8:	00f5f933          	and	s2,a1,a5
  last = PGROUNDDOWN(va + size - 1);
    800011dc:	167d                	addi	a2,a2,-1
    800011de:	00b609b3          	add	s3,a2,a1
    800011e2:	00f9f9b3          	and	s3,s3,a5
    if(PTE_FLAGS(*pte) == PTE_V)
    800011e6:	4b05                	li	s6,1
    a += PGSIZE;
    800011e8:	6b85                	lui	s7,0x1
    800011ea:	a0b9                	j	80001238 <uvmunmap+0x7c>
      panic("uvmunmap: walk");
    800011ec:	00006517          	auipc	a0,0x6
    800011f0:	ffc50513          	addi	a0,a0,-4 # 800071e8 <userret+0x158>
    800011f4:	fffff097          	auipc	ra,0xfffff
    800011f8:	354080e7          	jalr	852(ra) # 80000548 <panic>
      printf("va=%p pte=%p\n", a, *pte);
    800011fc:	85ca                	mv	a1,s2
    800011fe:	00006517          	auipc	a0,0x6
    80001202:	ffa50513          	addi	a0,a0,-6 # 800071f8 <userret+0x168>
    80001206:	fffff097          	auipc	ra,0xfffff
    8000120a:	38c080e7          	jalr	908(ra) # 80000592 <printf>
      panic("uvmunmap: not mapped");
    8000120e:	00006517          	auipc	a0,0x6
    80001212:	ffa50513          	addi	a0,a0,-6 # 80007208 <userret+0x178>
    80001216:	fffff097          	auipc	ra,0xfffff
    8000121a:	332080e7          	jalr	818(ra) # 80000548 <panic>
      panic("uvmunmap: not a leaf");
    8000121e:	00006517          	auipc	a0,0x6
    80001222:	00250513          	addi	a0,a0,2 # 80007220 <userret+0x190>
    80001226:	fffff097          	auipc	ra,0xfffff
    8000122a:	322080e7          	jalr	802(ra) # 80000548 <panic>
    *pte = 0;
    8000122e:	0004b023          	sd	zero,0(s1)
    if(a == last)
    80001232:	03390e63          	beq	s2,s3,8000126e <uvmunmap+0xb2>
    a += PGSIZE;
    80001236:	995e                	add	s2,s2,s7
    if((pte = walk(pagetable, a, 0)) == 0)
    80001238:	4601                	li	a2,0
    8000123a:	85ca                	mv	a1,s2
    8000123c:	8552                	mv	a0,s4
    8000123e:	00000097          	auipc	ra,0x0
    80001242:	c0a080e7          	jalr	-1014(ra) # 80000e48 <walk>
    80001246:	84aa                	mv	s1,a0
    80001248:	d155                	beqz	a0,800011ec <uvmunmap+0x30>
    if((*pte & PTE_V) == 0){
    8000124a:	6110                	ld	a2,0(a0)
    8000124c:	00167793          	andi	a5,a2,1
    80001250:	d7d5                	beqz	a5,800011fc <uvmunmap+0x40>
    if(PTE_FLAGS(*pte) == PTE_V)
    80001252:	01f67793          	andi	a5,a2,31
    80001256:	fd6784e3          	beq	a5,s6,8000121e <uvmunmap+0x62>
    if(do_free){
    8000125a:	fc0a8ae3          	beqz	s5,8000122e <uvmunmap+0x72>
      pa = PTE2PA(*pte);
    8000125e:	8229                	srli	a2,a2,0xa
      kfree((void*)pa);
    80001260:	00c61513          	slli	a0,a2,0xc
    80001264:	fffff097          	auipc	ra,0xfffff
    80001268:	5f0080e7          	jalr	1520(ra) # 80000854 <kfree>
    8000126c:	b7c9                	j	8000122e <uvmunmap+0x72>
}
    8000126e:	60a6                	ld	ra,72(sp)
    80001270:	6406                	ld	s0,64(sp)
    80001272:	74e2                	ld	s1,56(sp)
    80001274:	7942                	ld	s2,48(sp)
    80001276:	79a2                	ld	s3,40(sp)
    80001278:	7a02                	ld	s4,32(sp)
    8000127a:	6ae2                	ld	s5,24(sp)
    8000127c:	6b42                	ld	s6,16(sp)
    8000127e:	6ba2                	ld	s7,8(sp)
    80001280:	6161                	addi	sp,sp,80
    80001282:	8082                	ret

0000000080001284 <uvmcreate>:
{
    80001284:	1101                	addi	sp,sp,-32
    80001286:	ec06                	sd	ra,24(sp)
    80001288:	e822                	sd	s0,16(sp)
    8000128a:	e426                	sd	s1,8(sp)
    8000128c:	1000                	addi	s0,sp,32
  pagetable = (pagetable_t) kalloc();
    8000128e:	fffff097          	auipc	ra,0xfffff
    80001292:	6c2080e7          	jalr	1730(ra) # 80000950 <kalloc>
  if(pagetable == 0)
    80001296:	cd11                	beqz	a0,800012b2 <uvmcreate+0x2e>
    80001298:	84aa                	mv	s1,a0
  memset(pagetable, 0, PGSIZE);
    8000129a:	6605                	lui	a2,0x1
    8000129c:	4581                	li	a1,0
    8000129e:	00000097          	auipc	ra,0x0
    800012a2:	8e4080e7          	jalr	-1820(ra) # 80000b82 <memset>
}
    800012a6:	8526                	mv	a0,s1
    800012a8:	60e2                	ld	ra,24(sp)
    800012aa:	6442                	ld	s0,16(sp)
    800012ac:	64a2                	ld	s1,8(sp)
    800012ae:	6105                	addi	sp,sp,32
    800012b0:	8082                	ret
    panic("uvmcreate: out of memory");
    800012b2:	00006517          	auipc	a0,0x6
    800012b6:	f8650513          	addi	a0,a0,-122 # 80007238 <userret+0x1a8>
    800012ba:	fffff097          	auipc	ra,0xfffff
    800012be:	28e080e7          	jalr	654(ra) # 80000548 <panic>

00000000800012c2 <uvminit>:
{
    800012c2:	7179                	addi	sp,sp,-48
    800012c4:	f406                	sd	ra,40(sp)
    800012c6:	f022                	sd	s0,32(sp)
    800012c8:	ec26                	sd	s1,24(sp)
    800012ca:	e84a                	sd	s2,16(sp)
    800012cc:	e44e                	sd	s3,8(sp)
    800012ce:	e052                	sd	s4,0(sp)
    800012d0:	1800                	addi	s0,sp,48
  if(sz >= PGSIZE)
    800012d2:	6785                	lui	a5,0x1
    800012d4:	04f67863          	bgeu	a2,a5,80001324 <uvminit+0x62>
    800012d8:	8a2a                	mv	s4,a0
    800012da:	89ae                	mv	s3,a1
    800012dc:	84b2                	mv	s1,a2
  mem = kalloc();
    800012de:	fffff097          	auipc	ra,0xfffff
    800012e2:	672080e7          	jalr	1650(ra) # 80000950 <kalloc>
    800012e6:	892a                	mv	s2,a0
  memset(mem, 0, PGSIZE);
    800012e8:	6605                	lui	a2,0x1
    800012ea:	4581                	li	a1,0
    800012ec:	00000097          	auipc	ra,0x0
    800012f0:	896080e7          	jalr	-1898(ra) # 80000b82 <memset>
  mappages(pagetable, 0, PGSIZE, (uint64)mem, PTE_W|PTE_R|PTE_X|PTE_U);
    800012f4:	4779                	li	a4,30
    800012f6:	86ca                	mv	a3,s2
    800012f8:	6605                	lui	a2,0x1
    800012fa:	4581                	li	a1,0
    800012fc:	8552                	mv	a0,s4
    800012fe:	00000097          	auipc	ra,0x0
    80001302:	d12080e7          	jalr	-750(ra) # 80001010 <mappages>
  memmove(mem, src, sz);
    80001306:	8626                	mv	a2,s1
    80001308:	85ce                	mv	a1,s3
    8000130a:	854a                	mv	a0,s2
    8000130c:	00000097          	auipc	ra,0x0
    80001310:	8d2080e7          	jalr	-1838(ra) # 80000bde <memmove>
}
    80001314:	70a2                	ld	ra,40(sp)
    80001316:	7402                	ld	s0,32(sp)
    80001318:	64e2                	ld	s1,24(sp)
    8000131a:	6942                	ld	s2,16(sp)
    8000131c:	69a2                	ld	s3,8(sp)
    8000131e:	6a02                	ld	s4,0(sp)
    80001320:	6145                	addi	sp,sp,48
    80001322:	8082                	ret
    panic("inituvm: more than a page");
    80001324:	00006517          	auipc	a0,0x6
    80001328:	f3450513          	addi	a0,a0,-204 # 80007258 <userret+0x1c8>
    8000132c:	fffff097          	auipc	ra,0xfffff
    80001330:	21c080e7          	jalr	540(ra) # 80000548 <panic>

0000000080001334 <uvmdealloc>:
{
    80001334:	87aa                	mv	a5,a0
    80001336:	852e                	mv	a0,a1
  if(newsz >= oldsz)
    80001338:	00b66363          	bltu	a2,a1,8000133e <uvmdealloc+0xa>
}
    8000133c:	8082                	ret
{
    8000133e:	1101                	addi	sp,sp,-32
    80001340:	ec06                	sd	ra,24(sp)
    80001342:	e822                	sd	s0,16(sp)
    80001344:	e426                	sd	s1,8(sp)
    80001346:	1000                	addi	s0,sp,32
    80001348:	84b2                	mv	s1,a2
  uvmunmap(pagetable, newsz, oldsz - newsz, 1);
    8000134a:	4685                	li	a3,1
    8000134c:	40c58633          	sub	a2,a1,a2
    80001350:	85a6                	mv	a1,s1
    80001352:	853e                	mv	a0,a5
    80001354:	00000097          	auipc	ra,0x0
    80001358:	e68080e7          	jalr	-408(ra) # 800011bc <uvmunmap>
  return newsz;
    8000135c:	8526                	mv	a0,s1
}
    8000135e:	60e2                	ld	ra,24(sp)
    80001360:	6442                	ld	s0,16(sp)
    80001362:	64a2                	ld	s1,8(sp)
    80001364:	6105                	addi	sp,sp,32
    80001366:	8082                	ret

0000000080001368 <uvmalloc>:
  if(newsz < oldsz)
    80001368:	0ab66163          	bltu	a2,a1,8000140a <uvmalloc+0xa2>
{
    8000136c:	7139                	addi	sp,sp,-64
    8000136e:	fc06                	sd	ra,56(sp)
    80001370:	f822                	sd	s0,48(sp)
    80001372:	f426                	sd	s1,40(sp)
    80001374:	f04a                	sd	s2,32(sp)
    80001376:	ec4e                	sd	s3,24(sp)
    80001378:	e852                	sd	s4,16(sp)
    8000137a:	e456                	sd	s5,8(sp)
    8000137c:	0080                	addi	s0,sp,64
    8000137e:	8aaa                	mv	s5,a0
    80001380:	8a32                	mv	s4,a2
  oldsz = PGROUNDUP(oldsz);
    80001382:	6985                	lui	s3,0x1
    80001384:	19fd                	addi	s3,s3,-1
    80001386:	95ce                	add	a1,a1,s3
    80001388:	79fd                	lui	s3,0xfffff
    8000138a:	0135f9b3          	and	s3,a1,s3
  for(; a < newsz; a += PGSIZE){
    8000138e:	08c9f063          	bgeu	s3,a2,8000140e <uvmalloc+0xa6>
  a = oldsz;
    80001392:	894e                	mv	s2,s3
    mem = kalloc();
    80001394:	fffff097          	auipc	ra,0xfffff
    80001398:	5bc080e7          	jalr	1468(ra) # 80000950 <kalloc>
    8000139c:	84aa                	mv	s1,a0
    if(mem == 0){
    8000139e:	c51d                	beqz	a0,800013cc <uvmalloc+0x64>
    memset(mem, 0, PGSIZE);
    800013a0:	6605                	lui	a2,0x1
    800013a2:	4581                	li	a1,0
    800013a4:	fffff097          	auipc	ra,0xfffff
    800013a8:	7de080e7          	jalr	2014(ra) # 80000b82 <memset>
    if(mappages(pagetable, a, PGSIZE, (uint64)mem, PTE_W|PTE_X|PTE_R|PTE_U) != 0){
    800013ac:	4779                	li	a4,30
    800013ae:	86a6                	mv	a3,s1
    800013b0:	6605                	lui	a2,0x1
    800013b2:	85ca                	mv	a1,s2
    800013b4:	8556                	mv	a0,s5
    800013b6:	00000097          	auipc	ra,0x0
    800013ba:	c5a080e7          	jalr	-934(ra) # 80001010 <mappages>
    800013be:	e905                	bnez	a0,800013ee <uvmalloc+0x86>
  for(; a < newsz; a += PGSIZE){
    800013c0:	6785                	lui	a5,0x1
    800013c2:	993e                	add	s2,s2,a5
    800013c4:	fd4968e3          	bltu	s2,s4,80001394 <uvmalloc+0x2c>
  return newsz;
    800013c8:	8552                	mv	a0,s4
    800013ca:	a809                	j	800013dc <uvmalloc+0x74>
      uvmdealloc(pagetable, a, oldsz);
    800013cc:	864e                	mv	a2,s3
    800013ce:	85ca                	mv	a1,s2
    800013d0:	8556                	mv	a0,s5
    800013d2:	00000097          	auipc	ra,0x0
    800013d6:	f62080e7          	jalr	-158(ra) # 80001334 <uvmdealloc>
      return 0;
    800013da:	4501                	li	a0,0
}
    800013dc:	70e2                	ld	ra,56(sp)
    800013de:	7442                	ld	s0,48(sp)
    800013e0:	74a2                	ld	s1,40(sp)
    800013e2:	7902                	ld	s2,32(sp)
    800013e4:	69e2                	ld	s3,24(sp)
    800013e6:	6a42                	ld	s4,16(sp)
    800013e8:	6aa2                	ld	s5,8(sp)
    800013ea:	6121                	addi	sp,sp,64
    800013ec:	8082                	ret
      kfree(mem);
    800013ee:	8526                	mv	a0,s1
    800013f0:	fffff097          	auipc	ra,0xfffff
    800013f4:	464080e7          	jalr	1124(ra) # 80000854 <kfree>
      uvmdealloc(pagetable, a, oldsz);
    800013f8:	864e                	mv	a2,s3
    800013fa:	85ca                	mv	a1,s2
    800013fc:	8556                	mv	a0,s5
    800013fe:	00000097          	auipc	ra,0x0
    80001402:	f36080e7          	jalr	-202(ra) # 80001334 <uvmdealloc>
      return 0;
    80001406:	4501                	li	a0,0
    80001408:	bfd1                	j	800013dc <uvmalloc+0x74>
    return oldsz;
    8000140a:	852e                	mv	a0,a1
}
    8000140c:	8082                	ret
  return newsz;
    8000140e:	8532                	mv	a0,a2
    80001410:	b7f1                	j	800013dc <uvmalloc+0x74>

0000000080001412 <uvmfree>:

// Free user memory pages,
// then free page-table pages.
void
uvmfree(pagetable_t pagetable, uint64 sz)
{
    80001412:	1101                	addi	sp,sp,-32
    80001414:	ec06                	sd	ra,24(sp)
    80001416:	e822                	sd	s0,16(sp)
    80001418:	e426                	sd	s1,8(sp)
    8000141a:	1000                	addi	s0,sp,32
    8000141c:	84aa                	mv	s1,a0
    8000141e:	862e                	mv	a2,a1
  uvmunmap(pagetable, 0, sz, 1);
    80001420:	4685                	li	a3,1
    80001422:	4581                	li	a1,0
    80001424:	00000097          	auipc	ra,0x0
    80001428:	d98080e7          	jalr	-616(ra) # 800011bc <uvmunmap>
  freewalk(pagetable);
    8000142c:	8526                	mv	a0,s1
    8000142e:	00000097          	auipc	ra,0x0
    80001432:	ac0080e7          	jalr	-1344(ra) # 80000eee <freewalk>
}
    80001436:	60e2                	ld	ra,24(sp)
    80001438:	6442                	ld	s0,16(sp)
    8000143a:	64a2                	ld	s1,8(sp)
    8000143c:	6105                	addi	sp,sp,32
    8000143e:	8082                	ret

0000000080001440 <uvmcopy>:
  pte_t *pte;
  uint64 pa, i;
  uint flags;
  char *mem;

  for(i = 0; i < sz; i += PGSIZE){
    80001440:	c671                	beqz	a2,8000150c <uvmcopy+0xcc>
{
    80001442:	715d                	addi	sp,sp,-80
    80001444:	e486                	sd	ra,72(sp)
    80001446:	e0a2                	sd	s0,64(sp)
    80001448:	fc26                	sd	s1,56(sp)
    8000144a:	f84a                	sd	s2,48(sp)
    8000144c:	f44e                	sd	s3,40(sp)
    8000144e:	f052                	sd	s4,32(sp)
    80001450:	ec56                	sd	s5,24(sp)
    80001452:	e85a                	sd	s6,16(sp)
    80001454:	e45e                	sd	s7,8(sp)
    80001456:	0880                	addi	s0,sp,80
    80001458:	8b2a                	mv	s6,a0
    8000145a:	8aae                	mv	s5,a1
    8000145c:	8a32                	mv	s4,a2
  for(i = 0; i < sz; i += PGSIZE){
    8000145e:	4981                	li	s3,0
    if((pte = walk(old, i, 0)) == 0)
    80001460:	4601                	li	a2,0
    80001462:	85ce                	mv	a1,s3
    80001464:	855a                	mv	a0,s6
    80001466:	00000097          	auipc	ra,0x0
    8000146a:	9e2080e7          	jalr	-1566(ra) # 80000e48 <walk>
    8000146e:	c531                	beqz	a0,800014ba <uvmcopy+0x7a>
      panic("copyuvm: pte should exist");
    if((*pte & PTE_V) == 0)
    80001470:	6118                	ld	a4,0(a0)
    80001472:	00177793          	andi	a5,a4,1
    80001476:	cbb1                	beqz	a5,800014ca <uvmcopy+0x8a>
      panic("copyuvm: page not present");
    pa = PTE2PA(*pte);
    80001478:	00a75593          	srli	a1,a4,0xa
    8000147c:	00c59b93          	slli	s7,a1,0xc
    flags = PTE_FLAGS(*pte);
    80001480:	01f77493          	andi	s1,a4,31
    if((mem = kalloc()) == 0)
    80001484:	fffff097          	auipc	ra,0xfffff
    80001488:	4cc080e7          	jalr	1228(ra) # 80000950 <kalloc>
    8000148c:	892a                	mv	s2,a0
    8000148e:	c939                	beqz	a0,800014e4 <uvmcopy+0xa4>
      goto err;
    memmove(mem, (char*)pa, PGSIZE);
    80001490:	6605                	lui	a2,0x1
    80001492:	85de                	mv	a1,s7
    80001494:	fffff097          	auipc	ra,0xfffff
    80001498:	74a080e7          	jalr	1866(ra) # 80000bde <memmove>
    if(mappages(new, i, PGSIZE, (uint64)mem, flags) != 0){
    8000149c:	8726                	mv	a4,s1
    8000149e:	86ca                	mv	a3,s2
    800014a0:	6605                	lui	a2,0x1
    800014a2:	85ce                	mv	a1,s3
    800014a4:	8556                	mv	a0,s5
    800014a6:	00000097          	auipc	ra,0x0
    800014aa:	b6a080e7          	jalr	-1174(ra) # 80001010 <mappages>
    800014ae:	e515                	bnez	a0,800014da <uvmcopy+0x9a>
  for(i = 0; i < sz; i += PGSIZE){
    800014b0:	6785                	lui	a5,0x1
    800014b2:	99be                	add	s3,s3,a5
    800014b4:	fb49e6e3          	bltu	s3,s4,80001460 <uvmcopy+0x20>
    800014b8:	a83d                	j	800014f6 <uvmcopy+0xb6>
      panic("copyuvm: pte should exist");
    800014ba:	00006517          	auipc	a0,0x6
    800014be:	dbe50513          	addi	a0,a0,-578 # 80007278 <userret+0x1e8>
    800014c2:	fffff097          	auipc	ra,0xfffff
    800014c6:	086080e7          	jalr	134(ra) # 80000548 <panic>
      panic("copyuvm: page not present");
    800014ca:	00006517          	auipc	a0,0x6
    800014ce:	dce50513          	addi	a0,a0,-562 # 80007298 <userret+0x208>
    800014d2:	fffff097          	auipc	ra,0xfffff
    800014d6:	076080e7          	jalr	118(ra) # 80000548 <panic>
      kfree(mem);
    800014da:	854a                	mv	a0,s2
    800014dc:	fffff097          	auipc	ra,0xfffff
    800014e0:	378080e7          	jalr	888(ra) # 80000854 <kfree>
    }
  }
  return 0;

 err:
  uvmunmap(new, 0, i, 1);
    800014e4:	4685                	li	a3,1
    800014e6:	864e                	mv	a2,s3
    800014e8:	4581                	li	a1,0
    800014ea:	8556                	mv	a0,s5
    800014ec:	00000097          	auipc	ra,0x0
    800014f0:	cd0080e7          	jalr	-816(ra) # 800011bc <uvmunmap>
  return -1;
    800014f4:	557d                	li	a0,-1
}
    800014f6:	60a6                	ld	ra,72(sp)
    800014f8:	6406                	ld	s0,64(sp)
    800014fa:	74e2                	ld	s1,56(sp)
    800014fc:	7942                	ld	s2,48(sp)
    800014fe:	79a2                	ld	s3,40(sp)
    80001500:	7a02                	ld	s4,32(sp)
    80001502:	6ae2                	ld	s5,24(sp)
    80001504:	6b42                	ld	s6,16(sp)
    80001506:	6ba2                	ld	s7,8(sp)
    80001508:	6161                	addi	sp,sp,80
    8000150a:	8082                	ret
  return 0;
    8000150c:	4501                	li	a0,0
}
    8000150e:	8082                	ret

0000000080001510 <uvmclear>:

// mark a PTE invalid for user access.
// used by exec for the user stack guard page.
void
uvmclear(pagetable_t pagetable, uint64 va)
{
    80001510:	1141                	addi	sp,sp,-16
    80001512:	e406                	sd	ra,8(sp)
    80001514:	e022                	sd	s0,0(sp)
    80001516:	0800                	addi	s0,sp,16
  pte_t *pte;
  
  pte = walk(pagetable, va, 0);
    80001518:	4601                	li	a2,0
    8000151a:	00000097          	auipc	ra,0x0
    8000151e:	92e080e7          	jalr	-1746(ra) # 80000e48 <walk>
  if(pte == 0)
    80001522:	c901                	beqz	a0,80001532 <uvmclear+0x22>
    panic("uvmclear");
  *pte &= ~PTE_U;
    80001524:	611c                	ld	a5,0(a0)
    80001526:	9bbd                	andi	a5,a5,-17
    80001528:	e11c                	sd	a5,0(a0)
}
    8000152a:	60a2                	ld	ra,8(sp)
    8000152c:	6402                	ld	s0,0(sp)
    8000152e:	0141                	addi	sp,sp,16
    80001530:	8082                	ret
    panic("uvmclear");
    80001532:	00006517          	auipc	a0,0x6
    80001536:	d8650513          	addi	a0,a0,-634 # 800072b8 <userret+0x228>
    8000153a:	fffff097          	auipc	ra,0xfffff
    8000153e:	00e080e7          	jalr	14(ra) # 80000548 <panic>

0000000080001542 <copyout>:
int
copyout(pagetable_t pagetable, uint64 dstva, char *src, uint64 len)
{
  uint64 n, va0, pa0;

  while(len > 0){
    80001542:	cab5                	beqz	a3,800015b6 <copyout+0x74>
{
    80001544:	715d                	addi	sp,sp,-80
    80001546:	e486                	sd	ra,72(sp)
    80001548:	e0a2                	sd	s0,64(sp)
    8000154a:	fc26                	sd	s1,56(sp)
    8000154c:	f84a                	sd	s2,48(sp)
    8000154e:	f44e                	sd	s3,40(sp)
    80001550:	f052                	sd	s4,32(sp)
    80001552:	ec56                	sd	s5,24(sp)
    80001554:	e85a                	sd	s6,16(sp)
    80001556:	e45e                	sd	s7,8(sp)
    80001558:	e062                	sd	s8,0(sp)
    8000155a:	0880                	addi	s0,sp,80
    8000155c:	8baa                	mv	s7,a0
    8000155e:	8c2e                	mv	s8,a1
    80001560:	8a32                	mv	s4,a2
    80001562:	89b6                	mv	s3,a3
    va0 = (uint)PGROUNDDOWN(dstva);
    80001564:	00100b37          	lui	s6,0x100
    80001568:	1b7d                	addi	s6,s6,-1
    8000156a:	0b32                	slli	s6,s6,0xc
    pa0 = walkaddr(pagetable, va0);
    if(pa0 == 0)
      return -1;
    n = PGSIZE - (dstva - va0);
    8000156c:	6a85                	lui	s5,0x1
    8000156e:	a015                	j	80001592 <copyout+0x50>
    if(n > len)
      n = len;
    memmove((void *)(pa0 + (dstva - va0)), src, n);
    80001570:	9562                	add	a0,a0,s8
    80001572:	0004861b          	sext.w	a2,s1
    80001576:	85d2                	mv	a1,s4
    80001578:	41250533          	sub	a0,a0,s2
    8000157c:	fffff097          	auipc	ra,0xfffff
    80001580:	662080e7          	jalr	1634(ra) # 80000bde <memmove>

    len -= n;
    80001584:	409989b3          	sub	s3,s3,s1
    src += n;
    80001588:	9a26                	add	s4,s4,s1
    dstva = va0 + PGSIZE;
    8000158a:	01590c33          	add	s8,s2,s5
  while(len > 0){
    8000158e:	02098263          	beqz	s3,800015b2 <copyout+0x70>
    va0 = (uint)PGROUNDDOWN(dstva);
    80001592:	016c7933          	and	s2,s8,s6
    pa0 = walkaddr(pagetable, va0);
    80001596:	85ca                	mv	a1,s2
    80001598:	855e                	mv	a0,s7
    8000159a:	00000097          	auipc	ra,0x0
    8000159e:	9e2080e7          	jalr	-1566(ra) # 80000f7c <walkaddr>
    if(pa0 == 0)
    800015a2:	cd01                	beqz	a0,800015ba <copyout+0x78>
    n = PGSIZE - (dstva - va0);
    800015a4:	418904b3          	sub	s1,s2,s8
    800015a8:	94d6                	add	s1,s1,s5
    if(n > len)
    800015aa:	fc99f3e3          	bgeu	s3,s1,80001570 <copyout+0x2e>
    800015ae:	84ce                	mv	s1,s3
    800015b0:	b7c1                	j	80001570 <copyout+0x2e>
  }
  return 0;
    800015b2:	4501                	li	a0,0
    800015b4:	a021                	j	800015bc <copyout+0x7a>
    800015b6:	4501                	li	a0,0
}
    800015b8:	8082                	ret
      return -1;
    800015ba:	557d                	li	a0,-1
}
    800015bc:	60a6                	ld	ra,72(sp)
    800015be:	6406                	ld	s0,64(sp)
    800015c0:	74e2                	ld	s1,56(sp)
    800015c2:	7942                	ld	s2,48(sp)
    800015c4:	79a2                	ld	s3,40(sp)
    800015c6:	7a02                	ld	s4,32(sp)
    800015c8:	6ae2                	ld	s5,24(sp)
    800015ca:	6b42                	ld	s6,16(sp)
    800015cc:	6ba2                	ld	s7,8(sp)
    800015ce:	6c02                	ld	s8,0(sp)
    800015d0:	6161                	addi	sp,sp,80
    800015d2:	8082                	ret

00000000800015d4 <copyin>:
int
copyin(pagetable_t pagetable, char *dst, uint64 srcva, uint64 len)
{
  uint64 n, va0, pa0;

  while(len > 0){
    800015d4:	cabd                	beqz	a3,8000164a <copyin+0x76>
{
    800015d6:	715d                	addi	sp,sp,-80
    800015d8:	e486                	sd	ra,72(sp)
    800015da:	e0a2                	sd	s0,64(sp)
    800015dc:	fc26                	sd	s1,56(sp)
    800015de:	f84a                	sd	s2,48(sp)
    800015e0:	f44e                	sd	s3,40(sp)
    800015e2:	f052                	sd	s4,32(sp)
    800015e4:	ec56                	sd	s5,24(sp)
    800015e6:	e85a                	sd	s6,16(sp)
    800015e8:	e45e                	sd	s7,8(sp)
    800015ea:	e062                	sd	s8,0(sp)
    800015ec:	0880                	addi	s0,sp,80
    800015ee:	8baa                	mv	s7,a0
    800015f0:	8a2e                	mv	s4,a1
    800015f2:	8c32                	mv	s8,a2
    800015f4:	89b6                	mv	s3,a3
    va0 = (uint)PGROUNDDOWN(srcva);
    800015f6:	00100b37          	lui	s6,0x100
    800015fa:	1b7d                	addi	s6,s6,-1
    800015fc:	0b32                	slli	s6,s6,0xc
    pa0 = walkaddr(pagetable, va0);
    if(pa0 == 0)
      return -1;
    n = PGSIZE - (srcva - va0);
    800015fe:	6a85                	lui	s5,0x1
    80001600:	a01d                	j	80001626 <copyin+0x52>
    if(n > len)
      n = len;
    memmove(dst, (void *)(pa0 + (srcva - va0)), n);
    80001602:	018505b3          	add	a1,a0,s8
    80001606:	0004861b          	sext.w	a2,s1
    8000160a:	412585b3          	sub	a1,a1,s2
    8000160e:	8552                	mv	a0,s4
    80001610:	fffff097          	auipc	ra,0xfffff
    80001614:	5ce080e7          	jalr	1486(ra) # 80000bde <memmove>

    len -= n;
    80001618:	409989b3          	sub	s3,s3,s1
    dst += n;
    8000161c:	9a26                	add	s4,s4,s1
    srcva = va0 + PGSIZE;
    8000161e:	01590c33          	add	s8,s2,s5
  while(len > 0){
    80001622:	02098263          	beqz	s3,80001646 <copyin+0x72>
    va0 = (uint)PGROUNDDOWN(srcva);
    80001626:	016c7933          	and	s2,s8,s6
    pa0 = walkaddr(pagetable, va0);
    8000162a:	85ca                	mv	a1,s2
    8000162c:	855e                	mv	a0,s7
    8000162e:	00000097          	auipc	ra,0x0
    80001632:	94e080e7          	jalr	-1714(ra) # 80000f7c <walkaddr>
    if(pa0 == 0)
    80001636:	cd01                	beqz	a0,8000164e <copyin+0x7a>
    n = PGSIZE - (srcva - va0);
    80001638:	418904b3          	sub	s1,s2,s8
    8000163c:	94d6                	add	s1,s1,s5
    if(n > len)
    8000163e:	fc99f2e3          	bgeu	s3,s1,80001602 <copyin+0x2e>
    80001642:	84ce                	mv	s1,s3
    80001644:	bf7d                	j	80001602 <copyin+0x2e>
  }
  return 0;
    80001646:	4501                	li	a0,0
    80001648:	a021                	j	80001650 <copyin+0x7c>
    8000164a:	4501                	li	a0,0
}
    8000164c:	8082                	ret
      return -1;
    8000164e:	557d                	li	a0,-1
}
    80001650:	60a6                	ld	ra,72(sp)
    80001652:	6406                	ld	s0,64(sp)
    80001654:	74e2                	ld	s1,56(sp)
    80001656:	7942                	ld	s2,48(sp)
    80001658:	79a2                	ld	s3,40(sp)
    8000165a:	7a02                	ld	s4,32(sp)
    8000165c:	6ae2                	ld	s5,24(sp)
    8000165e:	6b42                	ld	s6,16(sp)
    80001660:	6ba2                	ld	s7,8(sp)
    80001662:	6c02                	ld	s8,0(sp)
    80001664:	6161                	addi	sp,sp,80
    80001666:	8082                	ret

0000000080001668 <copyinstr>:
copyinstr(pagetable_t pagetable, char *dst, uint64 srcva, uint64 max)
{
  uint64 n, va0, pa0;
  int got_null = 0;

  while(got_null == 0 && max > 0){
    80001668:	c6dd                	beqz	a3,80001716 <copyinstr+0xae>
{
    8000166a:	715d                	addi	sp,sp,-80
    8000166c:	e486                	sd	ra,72(sp)
    8000166e:	e0a2                	sd	s0,64(sp)
    80001670:	fc26                	sd	s1,56(sp)
    80001672:	f84a                	sd	s2,48(sp)
    80001674:	f44e                	sd	s3,40(sp)
    80001676:	f052                	sd	s4,32(sp)
    80001678:	ec56                	sd	s5,24(sp)
    8000167a:	e85a                	sd	s6,16(sp)
    8000167c:	e45e                	sd	s7,8(sp)
    8000167e:	0880                	addi	s0,sp,80
    80001680:	8aaa                	mv	s5,a0
    80001682:	8b2e                	mv	s6,a1
    80001684:	8bb2                	mv	s7,a2
    80001686:	84b6                	mv	s1,a3
    va0 = (uint)PGROUNDDOWN(srcva);
    80001688:	00100a37          	lui	s4,0x100
    8000168c:	1a7d                	addi	s4,s4,-1
    8000168e:	0a32                	slli	s4,s4,0xc
    pa0 = walkaddr(pagetable, va0);
    if(pa0 == 0)
      return -1;
    n = PGSIZE - (srcva - va0);
    80001690:	6985                	lui	s3,0x1
    80001692:	a035                	j	800016be <copyinstr+0x56>
      n = max;

    char *p = (char *) (pa0 + (srcva - va0));
    while(n > 0){
      if(*p == '\0'){
        *dst = '\0';
    80001694:	00078023          	sb	zero,0(a5) # 1000 <_entry-0x7ffff000>
    80001698:	4785                	li	a5,1
      dst++;
    }

    srcva = va0 + PGSIZE;
  }
  if(got_null){
    8000169a:	0017b793          	seqz	a5,a5
    8000169e:	40f00533          	neg	a0,a5
    return 0;
  } else {
    return -1;
  }
}
    800016a2:	60a6                	ld	ra,72(sp)
    800016a4:	6406                	ld	s0,64(sp)
    800016a6:	74e2                	ld	s1,56(sp)
    800016a8:	7942                	ld	s2,48(sp)
    800016aa:	79a2                	ld	s3,40(sp)
    800016ac:	7a02                	ld	s4,32(sp)
    800016ae:	6ae2                	ld	s5,24(sp)
    800016b0:	6b42                	ld	s6,16(sp)
    800016b2:	6ba2                	ld	s7,8(sp)
    800016b4:	6161                	addi	sp,sp,80
    800016b6:	8082                	ret
    srcva = va0 + PGSIZE;
    800016b8:	01390bb3          	add	s7,s2,s3
  while(got_null == 0 && max > 0){
    800016bc:	c8a9                	beqz	s1,8000170e <copyinstr+0xa6>
    va0 = (uint)PGROUNDDOWN(srcva);
    800016be:	014bf933          	and	s2,s7,s4
    pa0 = walkaddr(pagetable, va0);
    800016c2:	85ca                	mv	a1,s2
    800016c4:	8556                	mv	a0,s5
    800016c6:	00000097          	auipc	ra,0x0
    800016ca:	8b6080e7          	jalr	-1866(ra) # 80000f7c <walkaddr>
    if(pa0 == 0)
    800016ce:	c131                	beqz	a0,80001712 <copyinstr+0xaa>
    n = PGSIZE - (srcva - va0);
    800016d0:	41790833          	sub	a6,s2,s7
    800016d4:	984e                	add	a6,a6,s3
    if(n > max)
    800016d6:	0104f363          	bgeu	s1,a6,800016dc <copyinstr+0x74>
    800016da:	8826                	mv	a6,s1
    char *p = (char *) (pa0 + (srcva - va0));
    800016dc:	955e                	add	a0,a0,s7
    800016de:	41250533          	sub	a0,a0,s2
    while(n > 0){
    800016e2:	fc080be3          	beqz	a6,800016b8 <copyinstr+0x50>
    800016e6:	985a                	add	a6,a6,s6
    800016e8:	87da                	mv	a5,s6
      if(*p == '\0'){
    800016ea:	41650633          	sub	a2,a0,s6
    800016ee:	14fd                	addi	s1,s1,-1
    800016f0:	9b26                	add	s6,s6,s1
    800016f2:	00f60733          	add	a4,a2,a5
    800016f6:	00074703          	lbu	a4,0(a4) # fffffffffffff000 <ticks+0xffffffff7ffd5fd8>
    800016fa:	df49                	beqz	a4,80001694 <copyinstr+0x2c>
        *dst = *p;
    800016fc:	00e78023          	sb	a4,0(a5)
      --max;
    80001700:	40fb04b3          	sub	s1,s6,a5
      dst++;
    80001704:	0785                	addi	a5,a5,1
    while(n > 0){
    80001706:	ff0796e3          	bne	a5,a6,800016f2 <copyinstr+0x8a>
      dst++;
    8000170a:	8b42                	mv	s6,a6
    8000170c:	b775                	j	800016b8 <copyinstr+0x50>
    8000170e:	4781                	li	a5,0
    80001710:	b769                	j	8000169a <copyinstr+0x32>
      return -1;
    80001712:	557d                	li	a0,-1
    80001714:	b779                	j	800016a2 <copyinstr+0x3a>
  int got_null = 0;
    80001716:	4781                	li	a5,0
  if(got_null){
    80001718:	0017b793          	seqz	a5,a5
    8000171c:	40f00533          	neg	a0,a5
}
    80001720:	8082                	ret

0000000080001722 <procinit>:

extern char trampoline[]; // trampoline.S

void
procinit(void)
{
    80001722:	715d                	addi	sp,sp,-80
    80001724:	e486                	sd	ra,72(sp)
    80001726:	e0a2                	sd	s0,64(sp)
    80001728:	fc26                	sd	s1,56(sp)
    8000172a:	f84a                	sd	s2,48(sp)
    8000172c:	f44e                	sd	s3,40(sp)
    8000172e:	f052                	sd	s4,32(sp)
    80001730:	ec56                	sd	s5,24(sp)
    80001732:	e85a                	sd	s6,16(sp)
    80001734:	e45e                	sd	s7,8(sp)
    80001736:	0880                	addi	s0,sp,80
  struct proc *p;
  
  initlock(&pid_lock, "nextpid");
    80001738:	00006597          	auipc	a1,0x6
    8000173c:	b9058593          	addi	a1,a1,-1136 # 800072c8 <userret+0x238>
    80001740:	00010517          	auipc	a0,0x10
    80001744:	1a850513          	addi	a0,a0,424 # 800118e8 <pid_lock>
    80001748:	fffff097          	auipc	ra,0xfffff
    8000174c:	268080e7          	jalr	616(ra) # 800009b0 <initlock>
  for(p = proc; p < &proc[NPROC]; p++) {
    80001750:	00010917          	auipc	s2,0x10
    80001754:	5b090913          	addi	s2,s2,1456 # 80011d00 <proc>
      initlock(&p->lock, "proc");
    80001758:	00006b97          	auipc	s7,0x6
    8000175c:	b78b8b93          	addi	s7,s7,-1160 # 800072d0 <userret+0x240>
      // Map it high in memory, followed by an invalid
      // guard page.
      char *pa = kalloc();
      if(pa == 0)
        panic("kalloc");
      uint64 va = KSTACK((int) (p - proc));
    80001760:	8b4a                	mv	s6,s2
    80001762:	00006a97          	auipc	s5,0x6
    80001766:	266a8a93          	addi	s5,s5,614 # 800079c8 <syscalls+0xc0>
    8000176a:	040009b7          	lui	s3,0x4000
    8000176e:	19fd                	addi	s3,s3,-1
    80001770:	09b2                	slli	s3,s3,0xc
  for(p = proc; p < &proc[NPROC]; p++) {
    80001772:	00016a17          	auipc	s4,0x16
    80001776:	d8ea0a13          	addi	s4,s4,-626 # 80017500 <tickslock>
      initlock(&p->lock, "proc");
    8000177a:	85de                	mv	a1,s7
    8000177c:	854a                	mv	a0,s2
    8000177e:	fffff097          	auipc	ra,0xfffff
    80001782:	232080e7          	jalr	562(ra) # 800009b0 <initlock>
      char *pa = kalloc();
    80001786:	fffff097          	auipc	ra,0xfffff
    8000178a:	1ca080e7          	jalr	458(ra) # 80000950 <kalloc>
    8000178e:	85aa                	mv	a1,a0
      if(pa == 0)
    80001790:	c929                	beqz	a0,800017e2 <procinit+0xc0>
      uint64 va = KSTACK((int) (p - proc));
    80001792:	416904b3          	sub	s1,s2,s6
    80001796:	8495                	srai	s1,s1,0x5
    80001798:	000ab783          	ld	a5,0(s5)
    8000179c:	02f484b3          	mul	s1,s1,a5
    800017a0:	2485                	addiw	s1,s1,1
    800017a2:	00d4949b          	slliw	s1,s1,0xd
    800017a6:	409984b3          	sub	s1,s3,s1
      kvmmap(va, (uint64)pa, PGSIZE, PTE_R | PTE_W);
    800017aa:	4699                	li	a3,6
    800017ac:	6605                	lui	a2,0x1
    800017ae:	8526                	mv	a0,s1
    800017b0:	00000097          	auipc	ra,0x0
    800017b4:	8ee080e7          	jalr	-1810(ra) # 8000109e <kvmmap>
      p->kstack = va;
    800017b8:	02993c23          	sd	s1,56(s2)
  for(p = proc; p < &proc[NPROC]; p++) {
    800017bc:	16090913          	addi	s2,s2,352
    800017c0:	fb491de3          	bne	s2,s4,8000177a <procinit+0x58>
  }
  kvminithart();
    800017c4:	fffff097          	auipc	ra,0xfffff
    800017c8:	794080e7          	jalr	1940(ra) # 80000f58 <kvminithart>
}
    800017cc:	60a6                	ld	ra,72(sp)
    800017ce:	6406                	ld	s0,64(sp)
    800017d0:	74e2                	ld	s1,56(sp)
    800017d2:	7942                	ld	s2,48(sp)
    800017d4:	79a2                	ld	s3,40(sp)
    800017d6:	7a02                	ld	s4,32(sp)
    800017d8:	6ae2                	ld	s5,24(sp)
    800017da:	6b42                	ld	s6,16(sp)
    800017dc:	6ba2                	ld	s7,8(sp)
    800017de:	6161                	addi	sp,sp,80
    800017e0:	8082                	ret
        panic("kalloc");
    800017e2:	00006517          	auipc	a0,0x6
    800017e6:	af650513          	addi	a0,a0,-1290 # 800072d8 <userret+0x248>
    800017ea:	fffff097          	auipc	ra,0xfffff
    800017ee:	d5e080e7          	jalr	-674(ra) # 80000548 <panic>

00000000800017f2 <cpuid>:
// Must be called with interrupts disabled,
// to prevent race with process being moved
// to a different CPU.
int
cpuid()
{
    800017f2:	1141                	addi	sp,sp,-16
    800017f4:	e422                	sd	s0,8(sp)
    800017f6:	0800                	addi	s0,sp,16
  asm volatile("mv %0, tp" : "=r" (x) );
    800017f8:	8512                	mv	a0,tp
  int id = r_tp();
  return id;
}
    800017fa:	2501                	sext.w	a0,a0
    800017fc:	6422                	ld	s0,8(sp)
    800017fe:	0141                	addi	sp,sp,16
    80001800:	8082                	ret

0000000080001802 <mycpu>:

// Return this CPU's cpu struct.
// Interrupts must be disabled.
struct cpu*
mycpu(void) {
    80001802:	1141                	addi	sp,sp,-16
    80001804:	e422                	sd	s0,8(sp)
    80001806:	0800                	addi	s0,sp,16
    80001808:	8792                	mv	a5,tp
  int id = cpuid();
  struct cpu *c = &cpus[id];
    8000180a:	2781                	sext.w	a5,a5
    8000180c:	079e                	slli	a5,a5,0x7
  return c;
}
    8000180e:	00010517          	auipc	a0,0x10
    80001812:	0f250513          	addi	a0,a0,242 # 80011900 <cpus>
    80001816:	953e                	add	a0,a0,a5
    80001818:	6422                	ld	s0,8(sp)
    8000181a:	0141                	addi	sp,sp,16
    8000181c:	8082                	ret

000000008000181e <myproc>:

// Return the current struct proc *, or zero if none.
struct proc*
myproc(void) {
    8000181e:	1101                	addi	sp,sp,-32
    80001820:	ec06                	sd	ra,24(sp)
    80001822:	e822                	sd	s0,16(sp)
    80001824:	e426                	sd	s1,8(sp)
    80001826:	1000                	addi	s0,sp,32
  push_off();
    80001828:	fffff097          	auipc	ra,0xfffff
    8000182c:	19e080e7          	jalr	414(ra) # 800009c6 <push_off>
    80001830:	8792                	mv	a5,tp
  struct cpu *c = mycpu();
  struct proc *p = c->proc;
    80001832:	2781                	sext.w	a5,a5
    80001834:	079e                	slli	a5,a5,0x7
    80001836:	00010717          	auipc	a4,0x10
    8000183a:	0b270713          	addi	a4,a4,178 # 800118e8 <pid_lock>
    8000183e:	97ba                	add	a5,a5,a4
    80001840:	6f84                	ld	s1,24(a5)
  pop_off();
    80001842:	fffff097          	auipc	ra,0xfffff
    80001846:	1d0080e7          	jalr	464(ra) # 80000a12 <pop_off>
  return p;
}
    8000184a:	8526                	mv	a0,s1
    8000184c:	60e2                	ld	ra,24(sp)
    8000184e:	6442                	ld	s0,16(sp)
    80001850:	64a2                	ld	s1,8(sp)
    80001852:	6105                	addi	sp,sp,32
    80001854:	8082                	ret

0000000080001856 <forkret>:

// A fork child's very first scheduling by scheduler()
// will swtch to forkret.
void
forkret(void)
{
    80001856:	1141                	addi	sp,sp,-16
    80001858:	e406                	sd	ra,8(sp)
    8000185a:	e022                	sd	s0,0(sp)
    8000185c:	0800                	addi	s0,sp,16
  static int first = 1;

  // Still holding p->lock from scheduler.
  release(&myproc()->lock);
    8000185e:	00000097          	auipc	ra,0x0
    80001862:	fc0080e7          	jalr	-64(ra) # 8000181e <myproc>
    80001866:	fffff097          	auipc	ra,0xfffff
    8000186a:	2c0080e7          	jalr	704(ra) # 80000b26 <release>

  if (first) {
    8000186e:	00006797          	auipc	a5,0x6
    80001872:	7c67a783          	lw	a5,1990(a5) # 80008034 <first.1>
    80001876:	eb89                	bnez	a5,80001888 <forkret+0x32>
    // be run from main().
    first = 0;
    fsinit(minor(ROOTDEV));
  }

  usertrapret();
    80001878:	00001097          	auipc	ra,0x1
    8000187c:	bd6080e7          	jalr	-1066(ra) # 8000244e <usertrapret>
}
    80001880:	60a2                	ld	ra,8(sp)
    80001882:	6402                	ld	s0,0(sp)
    80001884:	0141                	addi	sp,sp,16
    80001886:	8082                	ret
    first = 0;
    80001888:	00006797          	auipc	a5,0x6
    8000188c:	7a07a623          	sw	zero,1964(a5) # 80008034 <first.1>
    fsinit(minor(ROOTDEV));
    80001890:	4501                	li	a0,0
    80001892:	00002097          	auipc	ra,0x2
    80001896:	8c6080e7          	jalr	-1850(ra) # 80003158 <fsinit>
    8000189a:	bff9                	j	80001878 <forkret+0x22>

000000008000189c <allocpid>:
allocpid() {
    8000189c:	1101                	addi	sp,sp,-32
    8000189e:	ec06                	sd	ra,24(sp)
    800018a0:	e822                	sd	s0,16(sp)
    800018a2:	e426                	sd	s1,8(sp)
    800018a4:	e04a                	sd	s2,0(sp)
    800018a6:	1000                	addi	s0,sp,32
  acquire(&pid_lock);
    800018a8:	00010917          	auipc	s2,0x10
    800018ac:	04090913          	addi	s2,s2,64 # 800118e8 <pid_lock>
    800018b0:	854a                	mv	a0,s2
    800018b2:	fffff097          	auipc	ra,0xfffff
    800018b6:	20c080e7          	jalr	524(ra) # 80000abe <acquire>
  pid = nextpid;
    800018ba:	00006797          	auipc	a5,0x6
    800018be:	77e78793          	addi	a5,a5,1918 # 80008038 <nextpid>
    800018c2:	4384                	lw	s1,0(a5)
  nextpid = nextpid + 1;
    800018c4:	0014871b          	addiw	a4,s1,1
    800018c8:	c398                	sw	a4,0(a5)
  release(&pid_lock);
    800018ca:	854a                	mv	a0,s2
    800018cc:	fffff097          	auipc	ra,0xfffff
    800018d0:	25a080e7          	jalr	602(ra) # 80000b26 <release>
}
    800018d4:	8526                	mv	a0,s1
    800018d6:	60e2                	ld	ra,24(sp)
    800018d8:	6442                	ld	s0,16(sp)
    800018da:	64a2                	ld	s1,8(sp)
    800018dc:	6902                	ld	s2,0(sp)
    800018de:	6105                	addi	sp,sp,32
    800018e0:	8082                	ret

00000000800018e2 <proc_pagetable>:
{
    800018e2:	1101                	addi	sp,sp,-32
    800018e4:	ec06                	sd	ra,24(sp)
    800018e6:	e822                	sd	s0,16(sp)
    800018e8:	e426                	sd	s1,8(sp)
    800018ea:	e04a                	sd	s2,0(sp)
    800018ec:	1000                	addi	s0,sp,32
    800018ee:	892a                	mv	s2,a0
  pagetable = uvmcreate();
    800018f0:	00000097          	auipc	ra,0x0
    800018f4:	994080e7          	jalr	-1644(ra) # 80001284 <uvmcreate>
    800018f8:	84aa                	mv	s1,a0
  mappages(pagetable, TRAMPOLINE, PGSIZE,
    800018fa:	4729                	li	a4,10
    800018fc:	00005697          	auipc	a3,0x5
    80001900:	70468693          	addi	a3,a3,1796 # 80007000 <trampoline>
    80001904:	6605                	lui	a2,0x1
    80001906:	040005b7          	lui	a1,0x4000
    8000190a:	15fd                	addi	a1,a1,-1
    8000190c:	05b2                	slli	a1,a1,0xc
    8000190e:	fffff097          	auipc	ra,0xfffff
    80001912:	702080e7          	jalr	1794(ra) # 80001010 <mappages>
  mappages(pagetable, TRAPFRAME, PGSIZE,
    80001916:	4719                	li	a4,6
    80001918:	05093683          	ld	a3,80(s2)
    8000191c:	6605                	lui	a2,0x1
    8000191e:	020005b7          	lui	a1,0x2000
    80001922:	15fd                	addi	a1,a1,-1
    80001924:	05b6                	slli	a1,a1,0xd
    80001926:	8526                	mv	a0,s1
    80001928:	fffff097          	auipc	ra,0xfffff
    8000192c:	6e8080e7          	jalr	1768(ra) # 80001010 <mappages>
}
    80001930:	8526                	mv	a0,s1
    80001932:	60e2                	ld	ra,24(sp)
    80001934:	6442                	ld	s0,16(sp)
    80001936:	64a2                	ld	s1,8(sp)
    80001938:	6902                	ld	s2,0(sp)
    8000193a:	6105                	addi	sp,sp,32
    8000193c:	8082                	ret

000000008000193e <allocproc>:
{
    8000193e:	1101                	addi	sp,sp,-32
    80001940:	ec06                	sd	ra,24(sp)
    80001942:	e822                	sd	s0,16(sp)
    80001944:	e426                	sd	s1,8(sp)
    80001946:	e04a                	sd	s2,0(sp)
    80001948:	1000                	addi	s0,sp,32
  for(p = proc; p < &proc[NPROC]; p++) {
    8000194a:	00010497          	auipc	s1,0x10
    8000194e:	3b648493          	addi	s1,s1,950 # 80011d00 <proc>
    80001952:	00016917          	auipc	s2,0x16
    80001956:	bae90913          	addi	s2,s2,-1106 # 80017500 <tickslock>
    acquire(&p->lock);
    8000195a:	8526                	mv	a0,s1
    8000195c:	fffff097          	auipc	ra,0xfffff
    80001960:	162080e7          	jalr	354(ra) # 80000abe <acquire>
    if(p->state == UNUSED) {
    80001964:	4c9c                	lw	a5,24(s1)
    80001966:	cf81                	beqz	a5,8000197e <allocproc+0x40>
      release(&p->lock);
    80001968:	8526                	mv	a0,s1
    8000196a:	fffff097          	auipc	ra,0xfffff
    8000196e:	1bc080e7          	jalr	444(ra) # 80000b26 <release>
  for(p = proc; p < &proc[NPROC]; p++) {
    80001972:	16048493          	addi	s1,s1,352
    80001976:	ff2492e3          	bne	s1,s2,8000195a <allocproc+0x1c>
  return 0;
    8000197a:	4481                	li	s1,0
    8000197c:	a0a9                	j	800019c6 <allocproc+0x88>
  p->pid = allocpid();
    8000197e:	00000097          	auipc	ra,0x0
    80001982:	f1e080e7          	jalr	-226(ra) # 8000189c <allocpid>
    80001986:	d8c8                	sw	a0,52(s1)
  if((p->tf = (struct trapframe *)kalloc()) == 0){
    80001988:	fffff097          	auipc	ra,0xfffff
    8000198c:	fc8080e7          	jalr	-56(ra) # 80000950 <kalloc>
    80001990:	892a                	mv	s2,a0
    80001992:	e8a8                	sd	a0,80(s1)
    80001994:	c121                	beqz	a0,800019d4 <allocproc+0x96>
  p->pagetable = proc_pagetable(p);
    80001996:	8526                	mv	a0,s1
    80001998:	00000097          	auipc	ra,0x0
    8000199c:	f4a080e7          	jalr	-182(ra) # 800018e2 <proc_pagetable>
    800019a0:	e4a8                	sd	a0,72(s1)
  memset(&p->context, 0, sizeof p->context);
    800019a2:	07000613          	li	a2,112
    800019a6:	4581                	li	a1,0
    800019a8:	05848513          	addi	a0,s1,88
    800019ac:	fffff097          	auipc	ra,0xfffff
    800019b0:	1d6080e7          	jalr	470(ra) # 80000b82 <memset>
  p->context.ra = (uint64)forkret;
    800019b4:	00000797          	auipc	a5,0x0
    800019b8:	ea278793          	addi	a5,a5,-350 # 80001856 <forkret>
    800019bc:	ecbc                	sd	a5,88(s1)
  p->context.sp = p->kstack + PGSIZE;
    800019be:	7c9c                	ld	a5,56(s1)
    800019c0:	6705                	lui	a4,0x1
    800019c2:	97ba                	add	a5,a5,a4
    800019c4:	f0bc                	sd	a5,96(s1)
}
    800019c6:	8526                	mv	a0,s1
    800019c8:	60e2                	ld	ra,24(sp)
    800019ca:	6442                	ld	s0,16(sp)
    800019cc:	64a2                	ld	s1,8(sp)
    800019ce:	6902                	ld	s2,0(sp)
    800019d0:	6105                	addi	sp,sp,32
    800019d2:	8082                	ret
    release(&p->lock);
    800019d4:	8526                	mv	a0,s1
    800019d6:	fffff097          	auipc	ra,0xfffff
    800019da:	150080e7          	jalr	336(ra) # 80000b26 <release>
    return 0;
    800019de:	84ca                	mv	s1,s2
    800019e0:	b7dd                	j	800019c6 <allocproc+0x88>

00000000800019e2 <proc_freepagetable>:
{
    800019e2:	1101                	addi	sp,sp,-32
    800019e4:	ec06                	sd	ra,24(sp)
    800019e6:	e822                	sd	s0,16(sp)
    800019e8:	e426                	sd	s1,8(sp)
    800019ea:	e04a                	sd	s2,0(sp)
    800019ec:	1000                	addi	s0,sp,32
    800019ee:	84aa                	mv	s1,a0
    800019f0:	892e                	mv	s2,a1
  uvmunmap(pagetable, TRAMPOLINE, PGSIZE, 0);
    800019f2:	4681                	li	a3,0
    800019f4:	6605                	lui	a2,0x1
    800019f6:	040005b7          	lui	a1,0x4000
    800019fa:	15fd                	addi	a1,a1,-1
    800019fc:	05b2                	slli	a1,a1,0xc
    800019fe:	fffff097          	auipc	ra,0xfffff
    80001a02:	7be080e7          	jalr	1982(ra) # 800011bc <uvmunmap>
  uvmunmap(pagetable, TRAPFRAME, PGSIZE, 0);
    80001a06:	4681                	li	a3,0
    80001a08:	6605                	lui	a2,0x1
    80001a0a:	020005b7          	lui	a1,0x2000
    80001a0e:	15fd                	addi	a1,a1,-1
    80001a10:	05b6                	slli	a1,a1,0xd
    80001a12:	8526                	mv	a0,s1
    80001a14:	fffff097          	auipc	ra,0xfffff
    80001a18:	7a8080e7          	jalr	1960(ra) # 800011bc <uvmunmap>
  if(sz > 0)
    80001a1c:	00091863          	bnez	s2,80001a2c <proc_freepagetable+0x4a>
}
    80001a20:	60e2                	ld	ra,24(sp)
    80001a22:	6442                	ld	s0,16(sp)
    80001a24:	64a2                	ld	s1,8(sp)
    80001a26:	6902                	ld	s2,0(sp)
    80001a28:	6105                	addi	sp,sp,32
    80001a2a:	8082                	ret
    uvmfree(pagetable, sz);
    80001a2c:	85ca                	mv	a1,s2
    80001a2e:	8526                	mv	a0,s1
    80001a30:	00000097          	auipc	ra,0x0
    80001a34:	9e2080e7          	jalr	-1566(ra) # 80001412 <uvmfree>
}
    80001a38:	b7e5                	j	80001a20 <proc_freepagetable+0x3e>

0000000080001a3a <freeproc>:
{
    80001a3a:	1101                	addi	sp,sp,-32
    80001a3c:	ec06                	sd	ra,24(sp)
    80001a3e:	e822                	sd	s0,16(sp)
    80001a40:	e426                	sd	s1,8(sp)
    80001a42:	1000                	addi	s0,sp,32
    80001a44:	84aa                	mv	s1,a0
  if(p->tf)
    80001a46:	6928                	ld	a0,80(a0)
    80001a48:	c509                	beqz	a0,80001a52 <freeproc+0x18>
    kfree((void*)p->tf);
    80001a4a:	fffff097          	auipc	ra,0xfffff
    80001a4e:	e0a080e7          	jalr	-502(ra) # 80000854 <kfree>
  p->tf = 0;
    80001a52:	0404b823          	sd	zero,80(s1)
  if(p->pagetable)
    80001a56:	64a8                	ld	a0,72(s1)
    80001a58:	c511                	beqz	a0,80001a64 <freeproc+0x2a>
    proc_freepagetable(p->pagetable, p->sz);
    80001a5a:	60ac                	ld	a1,64(s1)
    80001a5c:	00000097          	auipc	ra,0x0
    80001a60:	f86080e7          	jalr	-122(ra) # 800019e2 <proc_freepagetable>
  p->pagetable = 0;
    80001a64:	0404b423          	sd	zero,72(s1)
  p->sz = 0;
    80001a68:	0404b023          	sd	zero,64(s1)
  p->pid = 0;
    80001a6c:	0204aa23          	sw	zero,52(s1)
  p->parent = 0;
    80001a70:	0204b023          	sd	zero,32(s1)
  p->name[0] = 0;
    80001a74:	14048823          	sb	zero,336(s1)
  p->chan = 0;
    80001a78:	0204b423          	sd	zero,40(s1)
  p->killed = 0;
    80001a7c:	0204a823          	sw	zero,48(s1)
  p->state = UNUSED;
    80001a80:	0004ac23          	sw	zero,24(s1)
}
    80001a84:	60e2                	ld	ra,24(sp)
    80001a86:	6442                	ld	s0,16(sp)
    80001a88:	64a2                	ld	s1,8(sp)
    80001a8a:	6105                	addi	sp,sp,32
    80001a8c:	8082                	ret

0000000080001a8e <userinit>:
{
    80001a8e:	1101                	addi	sp,sp,-32
    80001a90:	ec06                	sd	ra,24(sp)
    80001a92:	e822                	sd	s0,16(sp)
    80001a94:	e426                	sd	s1,8(sp)
    80001a96:	1000                	addi	s0,sp,32
  p = allocproc();
    80001a98:	00000097          	auipc	ra,0x0
    80001a9c:	ea6080e7          	jalr	-346(ra) # 8000193e <allocproc>
    80001aa0:	84aa                	mv	s1,a0
  initproc = p;
    80001aa2:	00027797          	auipc	a5,0x27
    80001aa6:	56a7bf23          	sd	a0,1406(a5) # 80029020 <initproc>
  uvminit(p->pagetable, initcode, sizeof(initcode));
    80001aaa:	03300613          	li	a2,51
    80001aae:	00006597          	auipc	a1,0x6
    80001ab2:	55258593          	addi	a1,a1,1362 # 80008000 <initcode>
    80001ab6:	6528                	ld	a0,72(a0)
    80001ab8:	00000097          	auipc	ra,0x0
    80001abc:	80a080e7          	jalr	-2038(ra) # 800012c2 <uvminit>
  p->sz = PGSIZE;
    80001ac0:	6785                	lui	a5,0x1
    80001ac2:	e0bc                	sd	a5,64(s1)
  p->tf->epc = 0;      // user program counter
    80001ac4:	68b8                	ld	a4,80(s1)
    80001ac6:	00073c23          	sd	zero,24(a4) # 1018 <_entry-0x7fffefe8>
  p->tf->sp = PGSIZE;  // user stack pointer
    80001aca:	68b8                	ld	a4,80(s1)
    80001acc:	fb1c                	sd	a5,48(a4)
  safestrcpy(p->name, "initcode", sizeof(p->name));
    80001ace:	4641                	li	a2,16
    80001ad0:	00006597          	auipc	a1,0x6
    80001ad4:	81058593          	addi	a1,a1,-2032 # 800072e0 <userret+0x250>
    80001ad8:	15048513          	addi	a0,s1,336
    80001adc:	fffff097          	auipc	ra,0xfffff
    80001ae0:	1f8080e7          	jalr	504(ra) # 80000cd4 <safestrcpy>
  p->cwd = namei("/");
    80001ae4:	00006517          	auipc	a0,0x6
    80001ae8:	80c50513          	addi	a0,a0,-2036 # 800072f0 <userret+0x260>
    80001aec:	00002097          	auipc	ra,0x2
    80001af0:	070080e7          	jalr	112(ra) # 80003b5c <namei>
    80001af4:	14a4b423          	sd	a0,328(s1)
  p->state = RUNNABLE;
    80001af8:	4789                	li	a5,2
    80001afa:	cc9c                	sw	a5,24(s1)
  release(&p->lock);
    80001afc:	8526                	mv	a0,s1
    80001afe:	fffff097          	auipc	ra,0xfffff
    80001b02:	028080e7          	jalr	40(ra) # 80000b26 <release>
}
    80001b06:	60e2                	ld	ra,24(sp)
    80001b08:	6442                	ld	s0,16(sp)
    80001b0a:	64a2                	ld	s1,8(sp)
    80001b0c:	6105                	addi	sp,sp,32
    80001b0e:	8082                	ret

0000000080001b10 <growproc>:
{
    80001b10:	1101                	addi	sp,sp,-32
    80001b12:	ec06                	sd	ra,24(sp)
    80001b14:	e822                	sd	s0,16(sp)
    80001b16:	e426                	sd	s1,8(sp)
    80001b18:	e04a                	sd	s2,0(sp)
    80001b1a:	1000                	addi	s0,sp,32
    80001b1c:	84aa                	mv	s1,a0
  struct proc *p = myproc();
    80001b1e:	00000097          	auipc	ra,0x0
    80001b22:	d00080e7          	jalr	-768(ra) # 8000181e <myproc>
    80001b26:	892a                	mv	s2,a0
  sz = p->sz;
    80001b28:	612c                	ld	a1,64(a0)
    80001b2a:	0005861b          	sext.w	a2,a1
  if(n > 0){
    80001b2e:	00904f63          	bgtz	s1,80001b4c <growproc+0x3c>
  } else if(n < 0){
    80001b32:	0204cc63          	bltz	s1,80001b6a <growproc+0x5a>
  p->sz = sz;
    80001b36:	1602                	slli	a2,a2,0x20
    80001b38:	9201                	srli	a2,a2,0x20
    80001b3a:	04c93023          	sd	a2,64(s2)
  return 0;
    80001b3e:	4501                	li	a0,0
}
    80001b40:	60e2                	ld	ra,24(sp)
    80001b42:	6442                	ld	s0,16(sp)
    80001b44:	64a2                	ld	s1,8(sp)
    80001b46:	6902                	ld	s2,0(sp)
    80001b48:	6105                	addi	sp,sp,32
    80001b4a:	8082                	ret
    if((sz = uvmalloc(p->pagetable, sz, sz + n)) == 0) {
    80001b4c:	9e25                	addw	a2,a2,s1
    80001b4e:	1602                	slli	a2,a2,0x20
    80001b50:	9201                	srli	a2,a2,0x20
    80001b52:	1582                	slli	a1,a1,0x20
    80001b54:	9181                	srli	a1,a1,0x20
    80001b56:	6528                	ld	a0,72(a0)
    80001b58:	00000097          	auipc	ra,0x0
    80001b5c:	810080e7          	jalr	-2032(ra) # 80001368 <uvmalloc>
    80001b60:	0005061b          	sext.w	a2,a0
    80001b64:	fa69                	bnez	a2,80001b36 <growproc+0x26>
      return -1;
    80001b66:	557d                	li	a0,-1
    80001b68:	bfe1                	j	80001b40 <growproc+0x30>
    if((sz = uvmdealloc(p->pagetable, sz, sz + n)) == 0) {
    80001b6a:	9e25                	addw	a2,a2,s1
    80001b6c:	1602                	slli	a2,a2,0x20
    80001b6e:	9201                	srli	a2,a2,0x20
    80001b70:	1582                	slli	a1,a1,0x20
    80001b72:	9181                	srli	a1,a1,0x20
    80001b74:	6528                	ld	a0,72(a0)
    80001b76:	fffff097          	auipc	ra,0xfffff
    80001b7a:	7be080e7          	jalr	1982(ra) # 80001334 <uvmdealloc>
    80001b7e:	0005061b          	sext.w	a2,a0
    80001b82:	fa55                	bnez	a2,80001b36 <growproc+0x26>
      return -1;
    80001b84:	557d                	li	a0,-1
    80001b86:	bf6d                	j	80001b40 <growproc+0x30>

0000000080001b88 <fork>:
{
    80001b88:	7139                	addi	sp,sp,-64
    80001b8a:	fc06                	sd	ra,56(sp)
    80001b8c:	f822                	sd	s0,48(sp)
    80001b8e:	f426                	sd	s1,40(sp)
    80001b90:	f04a                	sd	s2,32(sp)
    80001b92:	ec4e                	sd	s3,24(sp)
    80001b94:	e852                	sd	s4,16(sp)
    80001b96:	e456                	sd	s5,8(sp)
    80001b98:	0080                	addi	s0,sp,64
  struct proc *p = myproc();
    80001b9a:	00000097          	auipc	ra,0x0
    80001b9e:	c84080e7          	jalr	-892(ra) # 8000181e <myproc>
    80001ba2:	8aaa                	mv	s5,a0
  if((np = allocproc()) == 0){
    80001ba4:	00000097          	auipc	ra,0x0
    80001ba8:	d9a080e7          	jalr	-614(ra) # 8000193e <allocproc>
    80001bac:	c17d                	beqz	a0,80001c92 <fork+0x10a>
    80001bae:	8a2a                	mv	s4,a0
  if(uvmcopy(p->pagetable, np->pagetable, p->sz) < 0){
    80001bb0:	040ab603          	ld	a2,64(s5)
    80001bb4:	652c                	ld	a1,72(a0)
    80001bb6:	048ab503          	ld	a0,72(s5)
    80001bba:	00000097          	auipc	ra,0x0
    80001bbe:	886080e7          	jalr	-1914(ra) # 80001440 <uvmcopy>
    80001bc2:	04054a63          	bltz	a0,80001c16 <fork+0x8e>
  np->sz = p->sz;
    80001bc6:	040ab783          	ld	a5,64(s5)
    80001bca:	04fa3023          	sd	a5,64(s4)
  np->parent = p;
    80001bce:	035a3023          	sd	s5,32(s4)
  *(np->tf) = *(p->tf);
    80001bd2:	050ab683          	ld	a3,80(s5)
    80001bd6:	87b6                	mv	a5,a3
    80001bd8:	050a3703          	ld	a4,80(s4)
    80001bdc:	12068693          	addi	a3,a3,288
    80001be0:	0007b803          	ld	a6,0(a5) # 1000 <_entry-0x7ffff000>
    80001be4:	6788                	ld	a0,8(a5)
    80001be6:	6b8c                	ld	a1,16(a5)
    80001be8:	6f90                	ld	a2,24(a5)
    80001bea:	01073023          	sd	a6,0(a4)
    80001bee:	e708                	sd	a0,8(a4)
    80001bf0:	eb0c                	sd	a1,16(a4)
    80001bf2:	ef10                	sd	a2,24(a4)
    80001bf4:	02078793          	addi	a5,a5,32
    80001bf8:	02070713          	addi	a4,a4,32
    80001bfc:	fed792e3          	bne	a5,a3,80001be0 <fork+0x58>
  np->tf->a0 = 0;
    80001c00:	050a3783          	ld	a5,80(s4)
    80001c04:	0607b823          	sd	zero,112(a5)
  for(i = 0; i < NOFILE; i++)
    80001c08:	0c8a8493          	addi	s1,s5,200
    80001c0c:	0c8a0913          	addi	s2,s4,200
    80001c10:	148a8993          	addi	s3,s5,328
    80001c14:	a00d                	j	80001c36 <fork+0xae>
    freeproc(np);
    80001c16:	8552                	mv	a0,s4
    80001c18:	00000097          	auipc	ra,0x0
    80001c1c:	e22080e7          	jalr	-478(ra) # 80001a3a <freeproc>
    release(&np->lock);
    80001c20:	8552                	mv	a0,s4
    80001c22:	fffff097          	auipc	ra,0xfffff
    80001c26:	f04080e7          	jalr	-252(ra) # 80000b26 <release>
    return -1;
    80001c2a:	54fd                	li	s1,-1
    80001c2c:	a889                	j	80001c7e <fork+0xf6>
  for(i = 0; i < NOFILE; i++)
    80001c2e:	04a1                	addi	s1,s1,8
    80001c30:	0921                	addi	s2,s2,8
    80001c32:	01348b63          	beq	s1,s3,80001c48 <fork+0xc0>
    if(p->ofile[i])
    80001c36:	6088                	ld	a0,0(s1)
    80001c38:	d97d                	beqz	a0,80001c2e <fork+0xa6>
      np->ofile[i] = filedup(p->ofile[i]);
    80001c3a:	00003097          	auipc	ra,0x3
    80001c3e:	816080e7          	jalr	-2026(ra) # 80004450 <filedup>
    80001c42:	00a93023          	sd	a0,0(s2)
    80001c46:	b7e5                	j	80001c2e <fork+0xa6>
  np->cwd = idup(p->cwd);
    80001c48:	148ab503          	ld	a0,328(s5)
    80001c4c:	00001097          	auipc	ra,0x1
    80001c50:	746080e7          	jalr	1862(ra) # 80003392 <idup>
    80001c54:	14aa3423          	sd	a0,328(s4)
  safestrcpy(np->name, p->name, sizeof(p->name));
    80001c58:	4641                	li	a2,16
    80001c5a:	150a8593          	addi	a1,s5,336
    80001c5e:	150a0513          	addi	a0,s4,336
    80001c62:	fffff097          	auipc	ra,0xfffff
    80001c66:	072080e7          	jalr	114(ra) # 80000cd4 <safestrcpy>
  pid = np->pid;
    80001c6a:	034a2483          	lw	s1,52(s4)
  np->state = RUNNABLE;
    80001c6e:	4789                	li	a5,2
    80001c70:	00fa2c23          	sw	a5,24(s4)
  release(&np->lock);
    80001c74:	8552                	mv	a0,s4
    80001c76:	fffff097          	auipc	ra,0xfffff
    80001c7a:	eb0080e7          	jalr	-336(ra) # 80000b26 <release>
}
    80001c7e:	8526                	mv	a0,s1
    80001c80:	70e2                	ld	ra,56(sp)
    80001c82:	7442                	ld	s0,48(sp)
    80001c84:	74a2                	ld	s1,40(sp)
    80001c86:	7902                	ld	s2,32(sp)
    80001c88:	69e2                	ld	s3,24(sp)
    80001c8a:	6a42                	ld	s4,16(sp)
    80001c8c:	6aa2                	ld	s5,8(sp)
    80001c8e:	6121                	addi	sp,sp,64
    80001c90:	8082                	ret
    return -1;
    80001c92:	54fd                	li	s1,-1
    80001c94:	b7ed                	j	80001c7e <fork+0xf6>

0000000080001c96 <reparent>:
reparent(struct proc *p, struct proc *parent) {
    80001c96:	711d                	addi	sp,sp,-96
    80001c98:	ec86                	sd	ra,88(sp)
    80001c9a:	e8a2                	sd	s0,80(sp)
    80001c9c:	e4a6                	sd	s1,72(sp)
    80001c9e:	e0ca                	sd	s2,64(sp)
    80001ca0:	fc4e                	sd	s3,56(sp)
    80001ca2:	f852                	sd	s4,48(sp)
    80001ca4:	f456                	sd	s5,40(sp)
    80001ca6:	f05a                	sd	s6,32(sp)
    80001ca8:	ec5e                	sd	s7,24(sp)
    80001caa:	e862                	sd	s8,16(sp)
    80001cac:	e466                	sd	s9,8(sp)
    80001cae:	1080                	addi	s0,sp,96
    80001cb0:	892a                	mv	s2,a0
  int child_of_init = (p->parent == initproc);
    80001cb2:	02053b83          	ld	s7,32(a0)
    80001cb6:	00027b17          	auipc	s6,0x27
    80001cba:	36ab3b03          	ld	s6,874(s6) # 80029020 <initproc>
  for(pp = proc; pp < &proc[NPROC]; pp++){
    80001cbe:	00010497          	auipc	s1,0x10
    80001cc2:	04248493          	addi	s1,s1,66 # 80011d00 <proc>
      pp->parent = initproc;
    80001cc6:	00027a17          	auipc	s4,0x27
    80001cca:	35aa0a13          	addi	s4,s4,858 # 80029020 <initproc>
      if(pp->state == ZOMBIE) {
    80001cce:	4a91                	li	s5,4
// Wake up p if it is sleeping in wait(); used by exit().
// Caller must hold p->lock.
static void
wakeup1(struct proc *p)
{
  if(p->chan == p && p->state == SLEEPING) {
    80001cd0:	4c05                	li	s8,1
    p->state = RUNNABLE;
    80001cd2:	4c89                	li	s9,2
  for(pp = proc; pp < &proc[NPROC]; pp++){
    80001cd4:	00016997          	auipc	s3,0x16
    80001cd8:	82c98993          	addi	s3,s3,-2004 # 80017500 <tickslock>
    80001cdc:	a805                	j	80001d0c <reparent+0x76>
  if(p->chan == p && p->state == SLEEPING) {
    80001cde:	751c                	ld	a5,40(a0)
    80001ce0:	00f51d63          	bne	a0,a5,80001cfa <reparent+0x64>
    80001ce4:	4d1c                	lw	a5,24(a0)
    80001ce6:	01879a63          	bne	a5,s8,80001cfa <reparent+0x64>
    p->state = RUNNABLE;
    80001cea:	01952c23          	sw	s9,24(a0)
        if(!child_of_init)
    80001cee:	016b8663          	beq	s7,s6,80001cfa <reparent+0x64>
          release(&initproc->lock);
    80001cf2:	fffff097          	auipc	ra,0xfffff
    80001cf6:	e34080e7          	jalr	-460(ra) # 80000b26 <release>
      release(&pp->lock);
    80001cfa:	8526                	mv	a0,s1
    80001cfc:	fffff097          	auipc	ra,0xfffff
    80001d00:	e2a080e7          	jalr	-470(ra) # 80000b26 <release>
  for(pp = proc; pp < &proc[NPROC]; pp++){
    80001d04:	16048493          	addi	s1,s1,352
    80001d08:	03348f63          	beq	s1,s3,80001d46 <reparent+0xb0>
    if(pp->parent == p){
    80001d0c:	709c                	ld	a5,32(s1)
    80001d0e:	ff279be3          	bne	a5,s2,80001d04 <reparent+0x6e>
      acquire(&pp->lock);
    80001d12:	8526                	mv	a0,s1
    80001d14:	fffff097          	auipc	ra,0xfffff
    80001d18:	daa080e7          	jalr	-598(ra) # 80000abe <acquire>
      pp->parent = initproc;
    80001d1c:	000a3503          	ld	a0,0(s4)
    80001d20:	f088                	sd	a0,32(s1)
      if(pp->state == ZOMBIE) {
    80001d22:	4c9c                	lw	a5,24(s1)
    80001d24:	fd579be3          	bne	a5,s5,80001cfa <reparent+0x64>
        if(!child_of_init)
    80001d28:	fb6b8be3          	beq	s7,s6,80001cde <reparent+0x48>
          acquire(&initproc->lock);
    80001d2c:	fffff097          	auipc	ra,0xfffff
    80001d30:	d92080e7          	jalr	-622(ra) # 80000abe <acquire>
        wakeup1(initproc);
    80001d34:	000a3503          	ld	a0,0(s4)
  if(p->chan == p && p->state == SLEEPING) {
    80001d38:	751c                	ld	a5,40(a0)
    80001d3a:	faa79ce3          	bne	a5,a0,80001cf2 <reparent+0x5c>
    80001d3e:	4d1c                	lw	a5,24(a0)
    80001d40:	fb8799e3          	bne	a5,s8,80001cf2 <reparent+0x5c>
    80001d44:	b75d                	j	80001cea <reparent+0x54>
}
    80001d46:	60e6                	ld	ra,88(sp)
    80001d48:	6446                	ld	s0,80(sp)
    80001d4a:	64a6                	ld	s1,72(sp)
    80001d4c:	6906                	ld	s2,64(sp)
    80001d4e:	79e2                	ld	s3,56(sp)
    80001d50:	7a42                	ld	s4,48(sp)
    80001d52:	7aa2                	ld	s5,40(sp)
    80001d54:	7b02                	ld	s6,32(sp)
    80001d56:	6be2                	ld	s7,24(sp)
    80001d58:	6c42                	ld	s8,16(sp)
    80001d5a:	6ca2                	ld	s9,8(sp)
    80001d5c:	6125                	addi	sp,sp,96
    80001d5e:	8082                	ret

0000000080001d60 <scheduler>:
{
    80001d60:	715d                	addi	sp,sp,-80
    80001d62:	e486                	sd	ra,72(sp)
    80001d64:	e0a2                	sd	s0,64(sp)
    80001d66:	fc26                	sd	s1,56(sp)
    80001d68:	f84a                	sd	s2,48(sp)
    80001d6a:	f44e                	sd	s3,40(sp)
    80001d6c:	f052                	sd	s4,32(sp)
    80001d6e:	ec56                	sd	s5,24(sp)
    80001d70:	e85a                	sd	s6,16(sp)
    80001d72:	e45e                	sd	s7,8(sp)
    80001d74:	e062                	sd	s8,0(sp)
    80001d76:	0880                	addi	s0,sp,80
    80001d78:	8792                	mv	a5,tp
  int id = r_tp();
    80001d7a:	2781                	sext.w	a5,a5
  c->proc = 0;
    80001d7c:	00779b13          	slli	s6,a5,0x7
    80001d80:	00010717          	auipc	a4,0x10
    80001d84:	b6870713          	addi	a4,a4,-1176 # 800118e8 <pid_lock>
    80001d88:	975a                	add	a4,a4,s6
    80001d8a:	00073c23          	sd	zero,24(a4)
        swtch(&c->scheduler, &p->context);
    80001d8e:	00010717          	auipc	a4,0x10
    80001d92:	b7a70713          	addi	a4,a4,-1158 # 80011908 <cpus+0x8>
    80001d96:	9b3a                	add	s6,s6,a4
        p->state = RUNNING;
    80001d98:	4c0d                	li	s8,3
        c->proc = p;
    80001d9a:	079e                	slli	a5,a5,0x7
    80001d9c:	00010a17          	auipc	s4,0x10
    80001da0:	b4ca0a13          	addi	s4,s4,-1204 # 800118e8 <pid_lock>
    80001da4:	9a3e                	add	s4,s4,a5
        found = 1;
    80001da6:	4b85                	li	s7,1
    for(p = proc; p < &proc[NPROC]; p++) {
    80001da8:	00015997          	auipc	s3,0x15
    80001dac:	75898993          	addi	s3,s3,1880 # 80017500 <tickslock>
    80001db0:	a08d                	j	80001e12 <scheduler+0xb2>
      release(&p->lock);
    80001db2:	8526                	mv	a0,s1
    80001db4:	fffff097          	auipc	ra,0xfffff
    80001db8:	d72080e7          	jalr	-654(ra) # 80000b26 <release>
    for(p = proc; p < &proc[NPROC]; p++) {
    80001dbc:	16048493          	addi	s1,s1,352
    80001dc0:	03348963          	beq	s1,s3,80001df2 <scheduler+0x92>
      acquire(&p->lock);
    80001dc4:	8526                	mv	a0,s1
    80001dc6:	fffff097          	auipc	ra,0xfffff
    80001dca:	cf8080e7          	jalr	-776(ra) # 80000abe <acquire>
      if(p->state == RUNNABLE) {
    80001dce:	4c9c                	lw	a5,24(s1)
    80001dd0:	ff2791e3          	bne	a5,s2,80001db2 <scheduler+0x52>
        p->state = RUNNING;
    80001dd4:	0184ac23          	sw	s8,24(s1)
        c->proc = p;
    80001dd8:	009a3c23          	sd	s1,24(s4)
        swtch(&c->scheduler, &p->context);
    80001ddc:	05848593          	addi	a1,s1,88
    80001de0:	855a                	mv	a0,s6
    80001de2:	00000097          	auipc	ra,0x0
    80001de6:	5c2080e7          	jalr	1474(ra) # 800023a4 <swtch>
        c->proc = 0;
    80001dea:	000a3c23          	sd	zero,24(s4)
        found = 1;
    80001dee:	8ade                	mv	s5,s7
    80001df0:	b7c9                	j	80001db2 <scheduler+0x52>
    if(found == 0){
    80001df2:	020a9063          	bnez	s5,80001e12 <scheduler+0xb2>
  asm volatile("csrr %0, sie" : "=r" (x) );
    80001df6:	104027f3          	csrr	a5,sie
  w_sie(r_sie() | SIE_SEIE | SIE_STIE | SIE_SSIE);
    80001dfa:	2227e793          	ori	a5,a5,546
  asm volatile("csrw sie, %0" : : "r" (x));
    80001dfe:	10479073          	csrw	sie,a5
  asm volatile("csrr %0, sstatus" : "=r" (x) );
    80001e02:	100027f3          	csrr	a5,sstatus
  w_sstatus(r_sstatus() | SSTATUS_SIE);
    80001e06:	0027e793          	ori	a5,a5,2
  asm volatile("csrw sstatus, %0" : : "r" (x));
    80001e0a:	10079073          	csrw	sstatus,a5
      asm volatile("wfi");
    80001e0e:	10500073          	wfi
  asm volatile("csrr %0, sie" : "=r" (x) );
    80001e12:	104027f3          	csrr	a5,sie
  w_sie(r_sie() | SIE_SEIE | SIE_STIE | SIE_SSIE);
    80001e16:	2227e793          	ori	a5,a5,546
  asm volatile("csrw sie, %0" : : "r" (x));
    80001e1a:	10479073          	csrw	sie,a5
  asm volatile("csrr %0, sstatus" : "=r" (x) );
    80001e1e:	100027f3          	csrr	a5,sstatus
  w_sstatus(r_sstatus() | SSTATUS_SIE);
    80001e22:	0027e793          	ori	a5,a5,2
  asm volatile("csrw sstatus, %0" : : "r" (x));
    80001e26:	10079073          	csrw	sstatus,a5
    int found = 0;
    80001e2a:	4a81                	li	s5,0
    for(p = proc; p < &proc[NPROC]; p++) {
    80001e2c:	00010497          	auipc	s1,0x10
    80001e30:	ed448493          	addi	s1,s1,-300 # 80011d00 <proc>
      if(p->state == RUNNABLE) {
    80001e34:	4909                	li	s2,2
    80001e36:	b779                	j	80001dc4 <scheduler+0x64>

0000000080001e38 <sched>:
{
    80001e38:	7179                	addi	sp,sp,-48
    80001e3a:	f406                	sd	ra,40(sp)
    80001e3c:	f022                	sd	s0,32(sp)
    80001e3e:	ec26                	sd	s1,24(sp)
    80001e40:	e84a                	sd	s2,16(sp)
    80001e42:	e44e                	sd	s3,8(sp)
    80001e44:	1800                	addi	s0,sp,48
  struct proc *p = myproc();
    80001e46:	00000097          	auipc	ra,0x0
    80001e4a:	9d8080e7          	jalr	-1576(ra) # 8000181e <myproc>
    80001e4e:	84aa                	mv	s1,a0
  if(!holding(&p->lock))
    80001e50:	fffff097          	auipc	ra,0xfffff
    80001e54:	c2e080e7          	jalr	-978(ra) # 80000a7e <holding>
    80001e58:	c93d                	beqz	a0,80001ece <sched+0x96>
  asm volatile("mv %0, tp" : "=r" (x) );
    80001e5a:	8792                	mv	a5,tp
  if(mycpu()->noff != 1)
    80001e5c:	2781                	sext.w	a5,a5
    80001e5e:	079e                	slli	a5,a5,0x7
    80001e60:	00010717          	auipc	a4,0x10
    80001e64:	a8870713          	addi	a4,a4,-1400 # 800118e8 <pid_lock>
    80001e68:	97ba                	add	a5,a5,a4
    80001e6a:	0907a703          	lw	a4,144(a5)
    80001e6e:	4785                	li	a5,1
    80001e70:	06f71763          	bne	a4,a5,80001ede <sched+0xa6>
  if(p->state == RUNNING)
    80001e74:	4c98                	lw	a4,24(s1)
    80001e76:	478d                	li	a5,3
    80001e78:	06f70b63          	beq	a4,a5,80001eee <sched+0xb6>
  asm volatile("csrr %0, sstatus" : "=r" (x) );
    80001e7c:	100027f3          	csrr	a5,sstatus
  return (x & SSTATUS_SIE) != 0;
    80001e80:	8b89                	andi	a5,a5,2
  if(intr_get())
    80001e82:	efb5                	bnez	a5,80001efe <sched+0xc6>
  asm volatile("mv %0, tp" : "=r" (x) );
    80001e84:	8792                	mv	a5,tp
  intena = mycpu()->intena;
    80001e86:	00010917          	auipc	s2,0x10
    80001e8a:	a6290913          	addi	s2,s2,-1438 # 800118e8 <pid_lock>
    80001e8e:	2781                	sext.w	a5,a5
    80001e90:	079e                	slli	a5,a5,0x7
    80001e92:	97ca                	add	a5,a5,s2
    80001e94:	0947a983          	lw	s3,148(a5)
    80001e98:	8792                	mv	a5,tp
  swtch(&p->context, &mycpu()->scheduler);
    80001e9a:	2781                	sext.w	a5,a5
    80001e9c:	079e                	slli	a5,a5,0x7
    80001e9e:	00010597          	auipc	a1,0x10
    80001ea2:	a6a58593          	addi	a1,a1,-1430 # 80011908 <cpus+0x8>
    80001ea6:	95be                	add	a1,a1,a5
    80001ea8:	05848513          	addi	a0,s1,88
    80001eac:	00000097          	auipc	ra,0x0
    80001eb0:	4f8080e7          	jalr	1272(ra) # 800023a4 <swtch>
    80001eb4:	8792                	mv	a5,tp
  mycpu()->intena = intena;
    80001eb6:	2781                	sext.w	a5,a5
    80001eb8:	079e                	slli	a5,a5,0x7
    80001eba:	97ca                	add	a5,a5,s2
    80001ebc:	0937aa23          	sw	s3,148(a5)
}
    80001ec0:	70a2                	ld	ra,40(sp)
    80001ec2:	7402                	ld	s0,32(sp)
    80001ec4:	64e2                	ld	s1,24(sp)
    80001ec6:	6942                	ld	s2,16(sp)
    80001ec8:	69a2                	ld	s3,8(sp)
    80001eca:	6145                	addi	sp,sp,48
    80001ecc:	8082                	ret
    panic("sched p->lock");
    80001ece:	00005517          	auipc	a0,0x5
    80001ed2:	42a50513          	addi	a0,a0,1066 # 800072f8 <userret+0x268>
    80001ed6:	ffffe097          	auipc	ra,0xffffe
    80001eda:	672080e7          	jalr	1650(ra) # 80000548 <panic>
    panic("sched locks");
    80001ede:	00005517          	auipc	a0,0x5
    80001ee2:	42a50513          	addi	a0,a0,1066 # 80007308 <userret+0x278>
    80001ee6:	ffffe097          	auipc	ra,0xffffe
    80001eea:	662080e7          	jalr	1634(ra) # 80000548 <panic>
    panic("sched running");
    80001eee:	00005517          	auipc	a0,0x5
    80001ef2:	42a50513          	addi	a0,a0,1066 # 80007318 <userret+0x288>
    80001ef6:	ffffe097          	auipc	ra,0xffffe
    80001efa:	652080e7          	jalr	1618(ra) # 80000548 <panic>
    panic("sched interruptible");
    80001efe:	00005517          	auipc	a0,0x5
    80001f02:	42a50513          	addi	a0,a0,1066 # 80007328 <userret+0x298>
    80001f06:	ffffe097          	auipc	ra,0xffffe
    80001f0a:	642080e7          	jalr	1602(ra) # 80000548 <panic>

0000000080001f0e <exit>:
{
    80001f0e:	7179                	addi	sp,sp,-48
    80001f10:	f406                	sd	ra,40(sp)
    80001f12:	f022                	sd	s0,32(sp)
    80001f14:	ec26                	sd	s1,24(sp)
    80001f16:	e84a                	sd	s2,16(sp)
    80001f18:	e44e                	sd	s3,8(sp)
    80001f1a:	1800                	addi	s0,sp,48
  struct proc *p = myproc();
    80001f1c:	00000097          	auipc	ra,0x0
    80001f20:	902080e7          	jalr	-1790(ra) # 8000181e <myproc>
    80001f24:	89aa                	mv	s3,a0
  if(p == initproc)
    80001f26:	00027797          	auipc	a5,0x27
    80001f2a:	0fa7b783          	ld	a5,250(a5) # 80029020 <initproc>
    80001f2e:	0c850493          	addi	s1,a0,200
    80001f32:	14850913          	addi	s2,a0,328
    80001f36:	02a79363          	bne	a5,a0,80001f5c <exit+0x4e>
    panic("init exiting");
    80001f3a:	00005517          	auipc	a0,0x5
    80001f3e:	40650513          	addi	a0,a0,1030 # 80007340 <userret+0x2b0>
    80001f42:	ffffe097          	auipc	ra,0xffffe
    80001f46:	606080e7          	jalr	1542(ra) # 80000548 <panic>
      fileclose(f);
    80001f4a:	00002097          	auipc	ra,0x2
    80001f4e:	558080e7          	jalr	1368(ra) # 800044a2 <fileclose>
      p->ofile[fd] = 0;
    80001f52:	0004b023          	sd	zero,0(s1)
  for(int fd = 0; fd < NOFILE; fd++){
    80001f56:	04a1                	addi	s1,s1,8
    80001f58:	01248563          	beq	s1,s2,80001f62 <exit+0x54>
    if(p->ofile[fd]){
    80001f5c:	6088                	ld	a0,0(s1)
    80001f5e:	f575                	bnez	a0,80001f4a <exit+0x3c>
    80001f60:	bfdd                	j	80001f56 <exit+0x48>
  begin_op(ROOTDEV);
    80001f62:	4501                	li	a0,0
    80001f64:	00002097          	auipc	ra,0x2
    80001f68:	f16080e7          	jalr	-234(ra) # 80003e7a <begin_op>
  iput(p->cwd);
    80001f6c:	1489b503          	ld	a0,328(s3)
    80001f70:	00001097          	auipc	ra,0x1
    80001f74:	56e080e7          	jalr	1390(ra) # 800034de <iput>
  end_op(ROOTDEV);
    80001f78:	4501                	li	a0,0
    80001f7a:	00002097          	auipc	ra,0x2
    80001f7e:	faa080e7          	jalr	-86(ra) # 80003f24 <end_op>
  p->cwd = 0;
    80001f82:	1409b423          	sd	zero,328(s3)
  acquire(&p->parent->lock);
    80001f86:	0209b503          	ld	a0,32(s3)
    80001f8a:	fffff097          	auipc	ra,0xfffff
    80001f8e:	b34080e7          	jalr	-1228(ra) # 80000abe <acquire>
  acquire(&p->lock);
    80001f92:	854e                	mv	a0,s3
    80001f94:	fffff097          	auipc	ra,0xfffff
    80001f98:	b2a080e7          	jalr	-1238(ra) # 80000abe <acquire>
  reparent(p, p->parent);
    80001f9c:	0209b583          	ld	a1,32(s3)
    80001fa0:	854e                	mv	a0,s3
    80001fa2:	00000097          	auipc	ra,0x0
    80001fa6:	cf4080e7          	jalr	-780(ra) # 80001c96 <reparent>
  wakeup1(p->parent);
    80001faa:	0209b783          	ld	a5,32(s3)
  if(p->chan == p && p->state == SLEEPING) {
    80001fae:	7798                	ld	a4,40(a5)
    80001fb0:	02e78763          	beq	a5,a4,80001fde <exit+0xd0>
  p->state = ZOMBIE;
    80001fb4:	4791                	li	a5,4
    80001fb6:	00f9ac23          	sw	a5,24(s3)
  release(&p->parent->lock);
    80001fba:	0209b503          	ld	a0,32(s3)
    80001fbe:	fffff097          	auipc	ra,0xfffff
    80001fc2:	b68080e7          	jalr	-1176(ra) # 80000b26 <release>
  sched();
    80001fc6:	00000097          	auipc	ra,0x0
    80001fca:	e72080e7          	jalr	-398(ra) # 80001e38 <sched>
  panic("zombie exit");
    80001fce:	00005517          	auipc	a0,0x5
    80001fd2:	38250513          	addi	a0,a0,898 # 80007350 <userret+0x2c0>
    80001fd6:	ffffe097          	auipc	ra,0xffffe
    80001fda:	572080e7          	jalr	1394(ra) # 80000548 <panic>
  if(p->chan == p && p->state == SLEEPING) {
    80001fde:	4f94                	lw	a3,24(a5)
    80001fe0:	4705                	li	a4,1
    80001fe2:	fce699e3          	bne	a3,a4,80001fb4 <exit+0xa6>
    p->state = RUNNABLE;
    80001fe6:	4709                	li	a4,2
    80001fe8:	cf98                	sw	a4,24(a5)
    80001fea:	b7e9                	j	80001fb4 <exit+0xa6>

0000000080001fec <yield>:
{
    80001fec:	1101                	addi	sp,sp,-32
    80001fee:	ec06                	sd	ra,24(sp)
    80001ff0:	e822                	sd	s0,16(sp)
    80001ff2:	e426                	sd	s1,8(sp)
    80001ff4:	1000                	addi	s0,sp,32
  struct proc *p = myproc();
    80001ff6:	00000097          	auipc	ra,0x0
    80001ffa:	828080e7          	jalr	-2008(ra) # 8000181e <myproc>
    80001ffe:	84aa                	mv	s1,a0
  acquire(&p->lock);
    80002000:	fffff097          	auipc	ra,0xfffff
    80002004:	abe080e7          	jalr	-1346(ra) # 80000abe <acquire>
  p->state = RUNNABLE;
    80002008:	4789                	li	a5,2
    8000200a:	cc9c                	sw	a5,24(s1)
  sched();
    8000200c:	00000097          	auipc	ra,0x0
    80002010:	e2c080e7          	jalr	-468(ra) # 80001e38 <sched>
  release(&p->lock);
    80002014:	8526                	mv	a0,s1
    80002016:	fffff097          	auipc	ra,0xfffff
    8000201a:	b10080e7          	jalr	-1264(ra) # 80000b26 <release>
}
    8000201e:	60e2                	ld	ra,24(sp)
    80002020:	6442                	ld	s0,16(sp)
    80002022:	64a2                	ld	s1,8(sp)
    80002024:	6105                	addi	sp,sp,32
    80002026:	8082                	ret

0000000080002028 <sleep>:
{
    80002028:	7179                	addi	sp,sp,-48
    8000202a:	f406                	sd	ra,40(sp)
    8000202c:	f022                	sd	s0,32(sp)
    8000202e:	ec26                	sd	s1,24(sp)
    80002030:	e84a                	sd	s2,16(sp)
    80002032:	e44e                	sd	s3,8(sp)
    80002034:	1800                	addi	s0,sp,48
    80002036:	89aa                	mv	s3,a0
    80002038:	892e                	mv	s2,a1
  struct proc *p = myproc();
    8000203a:	fffff097          	auipc	ra,0xfffff
    8000203e:	7e4080e7          	jalr	2020(ra) # 8000181e <myproc>
    80002042:	84aa                	mv	s1,a0
  if(lk != &p->lock){  //DOC: sleeplock0
    80002044:	05250663          	beq	a0,s2,80002090 <sleep+0x68>
    acquire(&p->lock);  //DOC: sleeplock1
    80002048:	fffff097          	auipc	ra,0xfffff
    8000204c:	a76080e7          	jalr	-1418(ra) # 80000abe <acquire>
    release(lk);
    80002050:	854a                	mv	a0,s2
    80002052:	fffff097          	auipc	ra,0xfffff
    80002056:	ad4080e7          	jalr	-1324(ra) # 80000b26 <release>
  p->chan = chan;
    8000205a:	0334b423          	sd	s3,40(s1)
  p->state = SLEEPING;
    8000205e:	4785                	li	a5,1
    80002060:	cc9c                	sw	a5,24(s1)
  sched();
    80002062:	00000097          	auipc	ra,0x0
    80002066:	dd6080e7          	jalr	-554(ra) # 80001e38 <sched>
  p->chan = 0;
    8000206a:	0204b423          	sd	zero,40(s1)
    release(&p->lock);
    8000206e:	8526                	mv	a0,s1
    80002070:	fffff097          	auipc	ra,0xfffff
    80002074:	ab6080e7          	jalr	-1354(ra) # 80000b26 <release>
    acquire(lk);
    80002078:	854a                	mv	a0,s2
    8000207a:	fffff097          	auipc	ra,0xfffff
    8000207e:	a44080e7          	jalr	-1468(ra) # 80000abe <acquire>
}
    80002082:	70a2                	ld	ra,40(sp)
    80002084:	7402                	ld	s0,32(sp)
    80002086:	64e2                	ld	s1,24(sp)
    80002088:	6942                	ld	s2,16(sp)
    8000208a:	69a2                	ld	s3,8(sp)
    8000208c:	6145                	addi	sp,sp,48
    8000208e:	8082                	ret
  p->chan = chan;
    80002090:	03353423          	sd	s3,40(a0)
  p->state = SLEEPING;
    80002094:	4785                	li	a5,1
    80002096:	cd1c                	sw	a5,24(a0)
  sched();
    80002098:	00000097          	auipc	ra,0x0
    8000209c:	da0080e7          	jalr	-608(ra) # 80001e38 <sched>
  p->chan = 0;
    800020a0:	0204b423          	sd	zero,40(s1)
  if(lk != &p->lock){
    800020a4:	bff9                	j	80002082 <sleep+0x5a>

00000000800020a6 <wait>:
{
    800020a6:	7139                	addi	sp,sp,-64
    800020a8:	fc06                	sd	ra,56(sp)
    800020aa:	f822                	sd	s0,48(sp)
    800020ac:	f426                	sd	s1,40(sp)
    800020ae:	f04a                	sd	s2,32(sp)
    800020b0:	ec4e                	sd	s3,24(sp)
    800020b2:	e852                	sd	s4,16(sp)
    800020b4:	e456                	sd	s5,8(sp)
    800020b6:	e05a                	sd	s6,0(sp)
    800020b8:	0080                	addi	s0,sp,64
  struct proc *p = myproc();
    800020ba:	fffff097          	auipc	ra,0xfffff
    800020be:	764080e7          	jalr	1892(ra) # 8000181e <myproc>
    800020c2:	892a                	mv	s2,a0
  acquire(&p->lock);
    800020c4:	fffff097          	auipc	ra,0xfffff
    800020c8:	9fa080e7          	jalr	-1542(ra) # 80000abe <acquire>
    havekids = 0;
    800020cc:	4b01                	li	s6,0
        if(np->state == ZOMBIE){
    800020ce:	4a11                	li	s4,4
        havekids = 1;
    800020d0:	4a85                	li	s5,1
    for(np = proc; np < &proc[NPROC]; np++){
    800020d2:	00015997          	auipc	s3,0x15
    800020d6:	42e98993          	addi	s3,s3,1070 # 80017500 <tickslock>
    havekids = 0;
    800020da:	875a                	mv	a4,s6
    for(np = proc; np < &proc[NPROC]; np++){
    800020dc:	00010497          	auipc	s1,0x10
    800020e0:	c2448493          	addi	s1,s1,-988 # 80011d00 <proc>
    800020e4:	a03d                	j	80002112 <wait+0x6c>
          pid = np->pid;
    800020e6:	0344a983          	lw	s3,52(s1)
          freeproc(np);
    800020ea:	8526                	mv	a0,s1
    800020ec:	00000097          	auipc	ra,0x0
    800020f0:	94e080e7          	jalr	-1714(ra) # 80001a3a <freeproc>
          release(&np->lock);
    800020f4:	8526                	mv	a0,s1
    800020f6:	fffff097          	auipc	ra,0xfffff
    800020fa:	a30080e7          	jalr	-1488(ra) # 80000b26 <release>
          release(&p->lock);
    800020fe:	854a                	mv	a0,s2
    80002100:	fffff097          	auipc	ra,0xfffff
    80002104:	a26080e7          	jalr	-1498(ra) # 80000b26 <release>
          return pid;
    80002108:	a089                	j	8000214a <wait+0xa4>
    for(np = proc; np < &proc[NPROC]; np++){
    8000210a:	16048493          	addi	s1,s1,352
    8000210e:	03348463          	beq	s1,s3,80002136 <wait+0x90>
      if(np->parent == p){
    80002112:	709c                	ld	a5,32(s1)
    80002114:	ff279be3          	bne	a5,s2,8000210a <wait+0x64>
        acquire(&np->lock);
    80002118:	8526                	mv	a0,s1
    8000211a:	fffff097          	auipc	ra,0xfffff
    8000211e:	9a4080e7          	jalr	-1628(ra) # 80000abe <acquire>
        if(np->state == ZOMBIE){
    80002122:	4c9c                	lw	a5,24(s1)
    80002124:	fd4781e3          	beq	a5,s4,800020e6 <wait+0x40>
        release(&np->lock);
    80002128:	8526                	mv	a0,s1
    8000212a:	fffff097          	auipc	ra,0xfffff
    8000212e:	9fc080e7          	jalr	-1540(ra) # 80000b26 <release>
        havekids = 1;
    80002132:	8756                	mv	a4,s5
    80002134:	bfd9                	j	8000210a <wait+0x64>
    if(!havekids || p->killed){
    80002136:	c701                	beqz	a4,8000213e <wait+0x98>
    80002138:	03092783          	lw	a5,48(s2)
    8000213c:	c395                	beqz	a5,80002160 <wait+0xba>
      release(&p->lock);
    8000213e:	854a                	mv	a0,s2
    80002140:	fffff097          	auipc	ra,0xfffff
    80002144:	9e6080e7          	jalr	-1562(ra) # 80000b26 <release>
      return -1;
    80002148:	59fd                	li	s3,-1
}
    8000214a:	854e                	mv	a0,s3
    8000214c:	70e2                	ld	ra,56(sp)
    8000214e:	7442                	ld	s0,48(sp)
    80002150:	74a2                	ld	s1,40(sp)
    80002152:	7902                	ld	s2,32(sp)
    80002154:	69e2                	ld	s3,24(sp)
    80002156:	6a42                	ld	s4,16(sp)
    80002158:	6aa2                	ld	s5,8(sp)
    8000215a:	6b02                	ld	s6,0(sp)
    8000215c:	6121                	addi	sp,sp,64
    8000215e:	8082                	ret
    sleep(p, &p->lock);  //DOC: wait-sleep
    80002160:	85ca                	mv	a1,s2
    80002162:	854a                	mv	a0,s2
    80002164:	00000097          	auipc	ra,0x0
    80002168:	ec4080e7          	jalr	-316(ra) # 80002028 <sleep>
    havekids = 0;
    8000216c:	b7bd                	j	800020da <wait+0x34>

000000008000216e <wakeup>:
{
    8000216e:	7139                	addi	sp,sp,-64
    80002170:	fc06                	sd	ra,56(sp)
    80002172:	f822                	sd	s0,48(sp)
    80002174:	f426                	sd	s1,40(sp)
    80002176:	f04a                	sd	s2,32(sp)
    80002178:	ec4e                	sd	s3,24(sp)
    8000217a:	e852                	sd	s4,16(sp)
    8000217c:	e456                	sd	s5,8(sp)
    8000217e:	0080                	addi	s0,sp,64
    80002180:	8a2a                	mv	s4,a0
  for(p = proc; p < &proc[NPROC]; p++) {
    80002182:	00010497          	auipc	s1,0x10
    80002186:	b7e48493          	addi	s1,s1,-1154 # 80011d00 <proc>
    if(p->state == SLEEPING && p->chan == chan) {
    8000218a:	4985                	li	s3,1
      p->state = RUNNABLE;
    8000218c:	4a89                	li	s5,2
  for(p = proc; p < &proc[NPROC]; p++) {
    8000218e:	00015917          	auipc	s2,0x15
    80002192:	37290913          	addi	s2,s2,882 # 80017500 <tickslock>
    80002196:	a811                	j	800021aa <wakeup+0x3c>
    release(&p->lock);
    80002198:	8526                	mv	a0,s1
    8000219a:	fffff097          	auipc	ra,0xfffff
    8000219e:	98c080e7          	jalr	-1652(ra) # 80000b26 <release>
  for(p = proc; p < &proc[NPROC]; p++) {
    800021a2:	16048493          	addi	s1,s1,352
    800021a6:	03248063          	beq	s1,s2,800021c6 <wakeup+0x58>
    acquire(&p->lock);
    800021aa:	8526                	mv	a0,s1
    800021ac:	fffff097          	auipc	ra,0xfffff
    800021b0:	912080e7          	jalr	-1774(ra) # 80000abe <acquire>
    if(p->state == SLEEPING && p->chan == chan) {
    800021b4:	4c9c                	lw	a5,24(s1)
    800021b6:	ff3791e3          	bne	a5,s3,80002198 <wakeup+0x2a>
    800021ba:	749c                	ld	a5,40(s1)
    800021bc:	fd479ee3          	bne	a5,s4,80002198 <wakeup+0x2a>
      p->state = RUNNABLE;
    800021c0:	0154ac23          	sw	s5,24(s1)
    800021c4:	bfd1                	j	80002198 <wakeup+0x2a>
}
    800021c6:	70e2                	ld	ra,56(sp)
    800021c8:	7442                	ld	s0,48(sp)
    800021ca:	74a2                	ld	s1,40(sp)
    800021cc:	7902                	ld	s2,32(sp)
    800021ce:	69e2                	ld	s3,24(sp)
    800021d0:	6a42                	ld	s4,16(sp)
    800021d2:	6aa2                	ld	s5,8(sp)
    800021d4:	6121                	addi	sp,sp,64
    800021d6:	8082                	ret

00000000800021d8 <kill>:
// Kill the process with the given pid.
// The victim won't exit until it tries to return
// to user space (see usertrap() in trap.c).
int
kill(int pid)
{
    800021d8:	7179                	addi	sp,sp,-48
    800021da:	f406                	sd	ra,40(sp)
    800021dc:	f022                	sd	s0,32(sp)
    800021de:	ec26                	sd	s1,24(sp)
    800021e0:	e84a                	sd	s2,16(sp)
    800021e2:	e44e                	sd	s3,8(sp)
    800021e4:	1800                	addi	s0,sp,48
    800021e6:	892a                	mv	s2,a0
  struct proc *p;

  for(p = proc; p < &proc[NPROC]; p++){
    800021e8:	00010497          	auipc	s1,0x10
    800021ec:	b1848493          	addi	s1,s1,-1256 # 80011d00 <proc>
    800021f0:	00015997          	auipc	s3,0x15
    800021f4:	31098993          	addi	s3,s3,784 # 80017500 <tickslock>
    acquire(&p->lock);
    800021f8:	8526                	mv	a0,s1
    800021fa:	fffff097          	auipc	ra,0xfffff
    800021fe:	8c4080e7          	jalr	-1852(ra) # 80000abe <acquire>
    if(p->pid == pid){
    80002202:	58dc                	lw	a5,52(s1)
    80002204:	01278d63          	beq	a5,s2,8000221e <kill+0x46>
        p->state = RUNNABLE;
      }
      release(&p->lock);
      return 0;
    }
    release(&p->lock);
    80002208:	8526                	mv	a0,s1
    8000220a:	fffff097          	auipc	ra,0xfffff
    8000220e:	91c080e7          	jalr	-1764(ra) # 80000b26 <release>
  for(p = proc; p < &proc[NPROC]; p++){
    80002212:	16048493          	addi	s1,s1,352
    80002216:	ff3491e3          	bne	s1,s3,800021f8 <kill+0x20>
  }
  return -1;
    8000221a:	557d                	li	a0,-1
    8000221c:	a821                	j	80002234 <kill+0x5c>
      p->killed = 1;
    8000221e:	4785                	li	a5,1
    80002220:	d89c                	sw	a5,48(s1)
      if(p->state == SLEEPING){
    80002222:	4c98                	lw	a4,24(s1)
    80002224:	00f70f63          	beq	a4,a5,80002242 <kill+0x6a>
      release(&p->lock);
    80002228:	8526                	mv	a0,s1
    8000222a:	fffff097          	auipc	ra,0xfffff
    8000222e:	8fc080e7          	jalr	-1796(ra) # 80000b26 <release>
      return 0;
    80002232:	4501                	li	a0,0
}
    80002234:	70a2                	ld	ra,40(sp)
    80002236:	7402                	ld	s0,32(sp)
    80002238:	64e2                	ld	s1,24(sp)
    8000223a:	6942                	ld	s2,16(sp)
    8000223c:	69a2                	ld	s3,8(sp)
    8000223e:	6145                	addi	sp,sp,48
    80002240:	8082                	ret
        p->state = RUNNABLE;
    80002242:	4789                	li	a5,2
    80002244:	cc9c                	sw	a5,24(s1)
    80002246:	b7cd                	j	80002228 <kill+0x50>

0000000080002248 <either_copyout>:
// Copy to either a user address, or kernel address,
// depending on usr_dst.
// Returns 0 on success, -1 on error.
int
either_copyout(int user_dst, uint64 dst, void *src, uint64 len)
{
    80002248:	7179                	addi	sp,sp,-48
    8000224a:	f406                	sd	ra,40(sp)
    8000224c:	f022                	sd	s0,32(sp)
    8000224e:	ec26                	sd	s1,24(sp)
    80002250:	e84a                	sd	s2,16(sp)
    80002252:	e44e                	sd	s3,8(sp)
    80002254:	e052                	sd	s4,0(sp)
    80002256:	1800                	addi	s0,sp,48
    80002258:	84aa                	mv	s1,a0
    8000225a:	892e                	mv	s2,a1
    8000225c:	89b2                	mv	s3,a2
    8000225e:	8a36                	mv	s4,a3
  struct proc *p = myproc();
    80002260:	fffff097          	auipc	ra,0xfffff
    80002264:	5be080e7          	jalr	1470(ra) # 8000181e <myproc>
  if(user_dst){
    80002268:	c08d                	beqz	s1,8000228a <either_copyout+0x42>
    return copyout(p->pagetable, dst, src, len);
    8000226a:	86d2                	mv	a3,s4
    8000226c:	864e                	mv	a2,s3
    8000226e:	85ca                	mv	a1,s2
    80002270:	6528                	ld	a0,72(a0)
    80002272:	fffff097          	auipc	ra,0xfffff
    80002276:	2d0080e7          	jalr	720(ra) # 80001542 <copyout>
  } else {
    memmove((char *)dst, src, len);
    return 0;
  }
}
    8000227a:	70a2                	ld	ra,40(sp)
    8000227c:	7402                	ld	s0,32(sp)
    8000227e:	64e2                	ld	s1,24(sp)
    80002280:	6942                	ld	s2,16(sp)
    80002282:	69a2                	ld	s3,8(sp)
    80002284:	6a02                	ld	s4,0(sp)
    80002286:	6145                	addi	sp,sp,48
    80002288:	8082                	ret
    memmove((char *)dst, src, len);
    8000228a:	000a061b          	sext.w	a2,s4
    8000228e:	85ce                	mv	a1,s3
    80002290:	854a                	mv	a0,s2
    80002292:	fffff097          	auipc	ra,0xfffff
    80002296:	94c080e7          	jalr	-1716(ra) # 80000bde <memmove>
    return 0;
    8000229a:	8526                	mv	a0,s1
    8000229c:	bff9                	j	8000227a <either_copyout+0x32>

000000008000229e <either_copyin>:
// Copy from either a user address, or kernel address,
// depending on usr_src.
// Returns 0 on success, -1 on error.
int
either_copyin(void *dst, int user_src, uint64 src, uint64 len)
{
    8000229e:	7179                	addi	sp,sp,-48
    800022a0:	f406                	sd	ra,40(sp)
    800022a2:	f022                	sd	s0,32(sp)
    800022a4:	ec26                	sd	s1,24(sp)
    800022a6:	e84a                	sd	s2,16(sp)
    800022a8:	e44e                	sd	s3,8(sp)
    800022aa:	e052                	sd	s4,0(sp)
    800022ac:	1800                	addi	s0,sp,48
    800022ae:	892a                	mv	s2,a0
    800022b0:	84ae                	mv	s1,a1
    800022b2:	89b2                	mv	s3,a2
    800022b4:	8a36                	mv	s4,a3
  struct proc *p = myproc();
    800022b6:	fffff097          	auipc	ra,0xfffff
    800022ba:	568080e7          	jalr	1384(ra) # 8000181e <myproc>
  if(user_src){
    800022be:	c08d                	beqz	s1,800022e0 <either_copyin+0x42>
    return copyin(p->pagetable, dst, src, len);
    800022c0:	86d2                	mv	a3,s4
    800022c2:	864e                	mv	a2,s3
    800022c4:	85ca                	mv	a1,s2
    800022c6:	6528                	ld	a0,72(a0)
    800022c8:	fffff097          	auipc	ra,0xfffff
    800022cc:	30c080e7          	jalr	780(ra) # 800015d4 <copyin>
  } else {
    memmove(dst, (char*)src, len);
    return 0;
  }
}
    800022d0:	70a2                	ld	ra,40(sp)
    800022d2:	7402                	ld	s0,32(sp)
    800022d4:	64e2                	ld	s1,24(sp)
    800022d6:	6942                	ld	s2,16(sp)
    800022d8:	69a2                	ld	s3,8(sp)
    800022da:	6a02                	ld	s4,0(sp)
    800022dc:	6145                	addi	sp,sp,48
    800022de:	8082                	ret
    memmove(dst, (char*)src, len);
    800022e0:	000a061b          	sext.w	a2,s4
    800022e4:	85ce                	mv	a1,s3
    800022e6:	854a                	mv	a0,s2
    800022e8:	fffff097          	auipc	ra,0xfffff
    800022ec:	8f6080e7          	jalr	-1802(ra) # 80000bde <memmove>
    return 0;
    800022f0:	8526                	mv	a0,s1
    800022f2:	bff9                	j	800022d0 <either_copyin+0x32>

00000000800022f4 <procdump>:
// Print a process listing to console.  For debugging.
// Runs when user types ^P on console.
// No lock to avoid wedging a stuck machine further.
void
procdump(void)
{
    800022f4:	715d                	addi	sp,sp,-80
    800022f6:	e486                	sd	ra,72(sp)
    800022f8:	e0a2                	sd	s0,64(sp)
    800022fa:	fc26                	sd	s1,56(sp)
    800022fc:	f84a                	sd	s2,48(sp)
    800022fe:	f44e                	sd	s3,40(sp)
    80002300:	f052                	sd	s4,32(sp)
    80002302:	ec56                	sd	s5,24(sp)
    80002304:	e85a                	sd	s6,16(sp)
    80002306:	e45e                	sd	s7,8(sp)
    80002308:	0880                	addi	s0,sp,80
  [ZOMBIE]    "zombie"
  };
  struct proc *p;
  char *state;

  printf("\n");
    8000230a:	00005517          	auipc	a0,0x5
    8000230e:	ea650513          	addi	a0,a0,-346 # 800071b0 <userret+0x120>
    80002312:	ffffe097          	auipc	ra,0xffffe
    80002316:	280080e7          	jalr	640(ra) # 80000592 <printf>
  for(p = proc; p < &proc[NPROC]; p++){
    8000231a:	00010497          	auipc	s1,0x10
    8000231e:	b3648493          	addi	s1,s1,-1226 # 80011e50 <proc+0x150>
    80002322:	00015917          	auipc	s2,0x15
    80002326:	32e90913          	addi	s2,s2,814 # 80017650 <bcache+0x138>
    if(p->state == UNUSED)
      continue;
    if(p->state >= 0 && p->state < NELEM(states) && states[p->state])
    8000232a:	4b11                	li	s6,4
      state = states[p->state];
    else
      state = "???";
    8000232c:	00005997          	auipc	s3,0x5
    80002330:	03498993          	addi	s3,s3,52 # 80007360 <userret+0x2d0>
    printf("%d %s %s", p->pid, state, p->name);
    80002334:	00005a97          	auipc	s5,0x5
    80002338:	034a8a93          	addi	s5,s5,52 # 80007368 <userret+0x2d8>
    printf("\n");
    8000233c:	00005a17          	auipc	s4,0x5
    80002340:	e74a0a13          	addi	s4,s4,-396 # 800071b0 <userret+0x120>
    if(p->state >= 0 && p->state < NELEM(states) && states[p->state])
    80002344:	00005b97          	auipc	s7,0x5
    80002348:	584b8b93          	addi	s7,s7,1412 # 800078c8 <states.0>
    8000234c:	a00d                	j	8000236e <procdump+0x7a>
    printf("%d %s %s", p->pid, state, p->name);
    8000234e:	ee46a583          	lw	a1,-284(a3)
    80002352:	8556                	mv	a0,s5
    80002354:	ffffe097          	auipc	ra,0xffffe
    80002358:	23e080e7          	jalr	574(ra) # 80000592 <printf>
    printf("\n");
    8000235c:	8552                	mv	a0,s4
    8000235e:	ffffe097          	auipc	ra,0xffffe
    80002362:	234080e7          	jalr	564(ra) # 80000592 <printf>
  for(p = proc; p < &proc[NPROC]; p++){
    80002366:	16048493          	addi	s1,s1,352
    8000236a:	03248263          	beq	s1,s2,8000238e <procdump+0x9a>
    if(p->state == UNUSED)
    8000236e:	86a6                	mv	a3,s1
    80002370:	ec84a783          	lw	a5,-312(s1)
    80002374:	dbed                	beqz	a5,80002366 <procdump+0x72>
      state = "???";
    80002376:	864e                	mv	a2,s3
    if(p->state >= 0 && p->state < NELEM(states) && states[p->state])
    80002378:	fcfb6be3          	bltu	s6,a5,8000234e <procdump+0x5a>
    8000237c:	02079713          	slli	a4,a5,0x20
    80002380:	01d75793          	srli	a5,a4,0x1d
    80002384:	97de                	add	a5,a5,s7
    80002386:	6390                	ld	a2,0(a5)
    80002388:	f279                	bnez	a2,8000234e <procdump+0x5a>
      state = "???";
    8000238a:	864e                	mv	a2,s3
    8000238c:	b7c9                	j	8000234e <procdump+0x5a>
  }
}
    8000238e:	60a6                	ld	ra,72(sp)
    80002390:	6406                	ld	s0,64(sp)
    80002392:	74e2                	ld	s1,56(sp)
    80002394:	7942                	ld	s2,48(sp)
    80002396:	79a2                	ld	s3,40(sp)
    80002398:	7a02                	ld	s4,32(sp)
    8000239a:	6ae2                	ld	s5,24(sp)
    8000239c:	6b42                	ld	s6,16(sp)
    8000239e:	6ba2                	ld	s7,8(sp)
    800023a0:	6161                	addi	sp,sp,80
    800023a2:	8082                	ret

00000000800023a4 <swtch>:
    800023a4:	00153023          	sd	ra,0(a0)
    800023a8:	00253423          	sd	sp,8(a0)
    800023ac:	e900                	sd	s0,16(a0)
    800023ae:	ed04                	sd	s1,24(a0)
    800023b0:	03253023          	sd	s2,32(a0)
    800023b4:	03353423          	sd	s3,40(a0)
    800023b8:	03453823          	sd	s4,48(a0)
    800023bc:	03553c23          	sd	s5,56(a0)
    800023c0:	05653023          	sd	s6,64(a0)
    800023c4:	05753423          	sd	s7,72(a0)
    800023c8:	05853823          	sd	s8,80(a0)
    800023cc:	05953c23          	sd	s9,88(a0)
    800023d0:	07a53023          	sd	s10,96(a0)
    800023d4:	07b53423          	sd	s11,104(a0)
    800023d8:	0005b083          	ld	ra,0(a1)
    800023dc:	0085b103          	ld	sp,8(a1)
    800023e0:	6980                	ld	s0,16(a1)
    800023e2:	6d84                	ld	s1,24(a1)
    800023e4:	0205b903          	ld	s2,32(a1)
    800023e8:	0285b983          	ld	s3,40(a1)
    800023ec:	0305ba03          	ld	s4,48(a1)
    800023f0:	0385ba83          	ld	s5,56(a1)
    800023f4:	0405bb03          	ld	s6,64(a1)
    800023f8:	0485bb83          	ld	s7,72(a1)
    800023fc:	0505bc03          	ld	s8,80(a1)
    80002400:	0585bc83          	ld	s9,88(a1)
    80002404:	0605bd03          	ld	s10,96(a1)
    80002408:	0685bd83          	ld	s11,104(a1)
    8000240c:	8082                	ret

000000008000240e <trapinit>:

extern int devintr();

void
trapinit(void)
{
    8000240e:	1141                	addi	sp,sp,-16
    80002410:	e406                	sd	ra,8(sp)
    80002412:	e022                	sd	s0,0(sp)
    80002414:	0800                	addi	s0,sp,16
  initlock(&tickslock, "time");
    80002416:	00005597          	auipc	a1,0x5
    8000241a:	f8a58593          	addi	a1,a1,-118 # 800073a0 <userret+0x310>
    8000241e:	00015517          	auipc	a0,0x15
    80002422:	0e250513          	addi	a0,a0,226 # 80017500 <tickslock>
    80002426:	ffffe097          	auipc	ra,0xffffe
    8000242a:	58a080e7          	jalr	1418(ra) # 800009b0 <initlock>
}
    8000242e:	60a2                	ld	ra,8(sp)
    80002430:	6402                	ld	s0,0(sp)
    80002432:	0141                	addi	sp,sp,16
    80002434:	8082                	ret

0000000080002436 <trapinithart>:

// set up to take exceptions and traps while in the kernel.
void
trapinithart(void)
{
    80002436:	1141                	addi	sp,sp,-16
    80002438:	e422                	sd	s0,8(sp)
    8000243a:	0800                	addi	s0,sp,16
  asm volatile("csrw stvec, %0" : : "r" (x));
    8000243c:	00003797          	auipc	a5,0x3
    80002440:	72478793          	addi	a5,a5,1828 # 80005b60 <kernelvec>
    80002444:	10579073          	csrw	stvec,a5
  w_stvec((uint64)kernelvec);
}
    80002448:	6422                	ld	s0,8(sp)
    8000244a:	0141                	addi	sp,sp,16
    8000244c:	8082                	ret

000000008000244e <usertrapret>:
//
// return to user space
//
void
usertrapret(void)
{
    8000244e:	1141                	addi	sp,sp,-16
    80002450:	e406                	sd	ra,8(sp)
    80002452:	e022                	sd	s0,0(sp)
    80002454:	0800                	addi	s0,sp,16
  struct proc *p = myproc();
    80002456:	fffff097          	auipc	ra,0xfffff
    8000245a:	3c8080e7          	jalr	968(ra) # 8000181e <myproc>
  asm volatile("csrr %0, sstatus" : "=r" (x) );
    8000245e:	100027f3          	csrr	a5,sstatus
  w_sstatus(r_sstatus() & ~SSTATUS_SIE);
    80002462:	9bf5                	andi	a5,a5,-3
  asm volatile("csrw sstatus, %0" : : "r" (x));
    80002464:	10079073          	csrw	sstatus,a5
  // turn off interrupts, since we're switching
  // now from kerneltrap() to usertrap().
  intr_off();

  // send interrupts and exceptions to trampoline.S
  w_stvec(TRAMPOLINE + (uservec - trampoline));
    80002468:	00005617          	auipc	a2,0x5
    8000246c:	b9860613          	addi	a2,a2,-1128 # 80007000 <trampoline>
    80002470:	00005697          	auipc	a3,0x5
    80002474:	b9068693          	addi	a3,a3,-1136 # 80007000 <trampoline>
    80002478:	8e91                	sub	a3,a3,a2
    8000247a:	040007b7          	lui	a5,0x4000
    8000247e:	17fd                	addi	a5,a5,-1
    80002480:	07b2                	slli	a5,a5,0xc
    80002482:	96be                	add	a3,a3,a5
  asm volatile("csrw stvec, %0" : : "r" (x));
    80002484:	10569073          	csrw	stvec,a3

  // set up values that uservec will need when
  // the process next re-enters the kernel.
  p->tf->kernel_satp = r_satp();         // kernel page table
    80002488:	6938                	ld	a4,80(a0)
  asm volatile("csrr %0, satp" : "=r" (x) );
    8000248a:	180026f3          	csrr	a3,satp
    8000248e:	e314                	sd	a3,0(a4)
  p->tf->kernel_sp = p->kstack + PGSIZE; // process's kernel stack
    80002490:	6938                	ld	a4,80(a0)
    80002492:	7d14                	ld	a3,56(a0)
    80002494:	6585                	lui	a1,0x1
    80002496:	96ae                	add	a3,a3,a1
    80002498:	e714                	sd	a3,8(a4)
  p->tf->kernel_trap = (uint64)usertrap;
    8000249a:	6938                	ld	a4,80(a0)
    8000249c:	00000697          	auipc	a3,0x0
    800024a0:	12868693          	addi	a3,a3,296 # 800025c4 <usertrap>
    800024a4:	eb14                	sd	a3,16(a4)
  p->tf->kernel_hartid = r_tp();         // hartid for cpuid()
    800024a6:	6938                	ld	a4,80(a0)
  asm volatile("mv %0, tp" : "=r" (x) );
    800024a8:	8692                	mv	a3,tp
    800024aa:	f314                	sd	a3,32(a4)
  asm volatile("csrr %0, sstatus" : "=r" (x) );
    800024ac:	100026f3          	csrr	a3,sstatus
  // set up the registers that trampoline.S's sret will use
  // to get to user space.
  
  // set S Previous Privilege mode to User.
  unsigned long x = r_sstatus();
  x &= ~SSTATUS_SPP; // clear SPP to 0 for user mode
    800024b0:	eff6f693          	andi	a3,a3,-257
  x |= SSTATUS_SPIE; // enable interrupts in user mode
    800024b4:	0206e693          	ori	a3,a3,32
  asm volatile("csrw sstatus, %0" : : "r" (x));
    800024b8:	10069073          	csrw	sstatus,a3
  w_sstatus(x);

  // set S Exception Program Counter to the saved user pc.
  w_sepc(p->tf->epc);
    800024bc:	6938                	ld	a4,80(a0)
  asm volatile("csrw sepc, %0" : : "r" (x));
    800024be:	6f18                	ld	a4,24(a4)
    800024c0:	14171073          	csrw	sepc,a4

  // tell trampoline.S the user page table to switch to.
  uint64 satp = MAKE_SATP(p->pagetable);
    800024c4:	652c                	ld	a1,72(a0)
    800024c6:	81b1                	srli	a1,a1,0xc

  // jump to trampoline.S at the top of memory, which 
  // switches to the user page table, restores user registers,
  // and switches to user mode with sret.
  uint64 fn = TRAMPOLINE + (userret - trampoline);
    800024c8:	00005717          	auipc	a4,0x5
    800024cc:	bc870713          	addi	a4,a4,-1080 # 80007090 <userret>
    800024d0:	8f11                	sub	a4,a4,a2
    800024d2:	97ba                	add	a5,a5,a4
  ((void (*)(uint64,uint64))fn)(TRAPFRAME, satp);
    800024d4:	577d                	li	a4,-1
    800024d6:	177e                	slli	a4,a4,0x3f
    800024d8:	8dd9                	or	a1,a1,a4
    800024da:	02000537          	lui	a0,0x2000
    800024de:	157d                	addi	a0,a0,-1
    800024e0:	0536                	slli	a0,a0,0xd
    800024e2:	9782                	jalr	a5
}
    800024e4:	60a2                	ld	ra,8(sp)
    800024e6:	6402                	ld	s0,0(sp)
    800024e8:	0141                	addi	sp,sp,16
    800024ea:	8082                	ret

00000000800024ec <clockintr>:
  w_sstatus(sstatus);
}

void
clockintr()
{
    800024ec:	1101                	addi	sp,sp,-32
    800024ee:	ec06                	sd	ra,24(sp)
    800024f0:	e822                	sd	s0,16(sp)
    800024f2:	e426                	sd	s1,8(sp)
    800024f4:	1000                	addi	s0,sp,32
  acquire(&tickslock);
    800024f6:	00015497          	auipc	s1,0x15
    800024fa:	00a48493          	addi	s1,s1,10 # 80017500 <tickslock>
    800024fe:	8526                	mv	a0,s1
    80002500:	ffffe097          	auipc	ra,0xffffe
    80002504:	5be080e7          	jalr	1470(ra) # 80000abe <acquire>
  ticks++;
    80002508:	00027517          	auipc	a0,0x27
    8000250c:	b2050513          	addi	a0,a0,-1248 # 80029028 <ticks>
    80002510:	411c                	lw	a5,0(a0)
    80002512:	2785                	addiw	a5,a5,1
    80002514:	c11c                	sw	a5,0(a0)
  wakeup(&ticks);
    80002516:	00000097          	auipc	ra,0x0
    8000251a:	c58080e7          	jalr	-936(ra) # 8000216e <wakeup>
  release(&tickslock);
    8000251e:	8526                	mv	a0,s1
    80002520:	ffffe097          	auipc	ra,0xffffe
    80002524:	606080e7          	jalr	1542(ra) # 80000b26 <release>
}
    80002528:	60e2                	ld	ra,24(sp)
    8000252a:	6442                	ld	s0,16(sp)
    8000252c:	64a2                	ld	s1,8(sp)
    8000252e:	6105                	addi	sp,sp,32
    80002530:	8082                	ret

0000000080002532 <devintr>:
// returns 2 if timer interrupt,
// 1 if other device,
// 0 if not recognized.
int
devintr()
{
    80002532:	1101                	addi	sp,sp,-32
    80002534:	ec06                	sd	ra,24(sp)
    80002536:	e822                	sd	s0,16(sp)
    80002538:	e426                	sd	s1,8(sp)
    8000253a:	1000                	addi	s0,sp,32
  asm volatile("csrr %0, scause" : "=r" (x) );
    8000253c:	14202773          	csrr	a4,scause
  uint64 scause = r_scause();

  if((scause & 0x8000000000000000L) &&
    80002540:	00074d63          	bltz	a4,8000255a <devintr+0x28>
      virtio_disk_intr(irq - VIRTIO0_IRQ);
    }

    plic_complete(irq);
    return 1;
  } else if(scause == 0x8000000000000001L){
    80002544:	57fd                	li	a5,-1
    80002546:	17fe                	slli	a5,a5,0x3f
    80002548:	0785                	addi	a5,a5,1
    // the SSIP bit in sip.
    w_sip(r_sip() & ~2);

    return 2;
  } else {
    return 0;
    8000254a:	4501                	li	a0,0
  } else if(scause == 0x8000000000000001L){
    8000254c:	04f70b63          	beq	a4,a5,800025a2 <devintr+0x70>
  }
}
    80002550:	60e2                	ld	ra,24(sp)
    80002552:	6442                	ld	s0,16(sp)
    80002554:	64a2                	ld	s1,8(sp)
    80002556:	6105                	addi	sp,sp,32
    80002558:	8082                	ret
     (scause & 0xff) == 9){
    8000255a:	0ff77793          	andi	a5,a4,255
  if((scause & 0x8000000000000000L) &&
    8000255e:	46a5                	li	a3,9
    80002560:	fed792e3          	bne	a5,a3,80002544 <devintr+0x12>
    int irq = plic_claim();
    80002564:	00003097          	auipc	ra,0x3
    80002568:	716080e7          	jalr	1814(ra) # 80005c7a <plic_claim>
    8000256c:	84aa                	mv	s1,a0
    if(irq == UART0_IRQ){
    8000256e:	47a9                	li	a5,10
    80002570:	00f50e63          	beq	a0,a5,8000258c <devintr+0x5a>
    } else if(irq == VIRTIO0_IRQ || irq == VIRTIO1_IRQ ){
    80002574:	fff5079b          	addiw	a5,a0,-1
    80002578:	4705                	li	a4,1
    8000257a:	00f77e63          	bgeu	a4,a5,80002596 <devintr+0x64>
    plic_complete(irq);
    8000257e:	8526                	mv	a0,s1
    80002580:	00003097          	auipc	ra,0x3
    80002584:	71e080e7          	jalr	1822(ra) # 80005c9e <plic_complete>
    return 1;
    80002588:	4505                	li	a0,1
    8000258a:	b7d9                	j	80002550 <devintr+0x1e>
      uartintr();
    8000258c:	ffffe097          	auipc	ra,0xffffe
    80002590:	29c080e7          	jalr	668(ra) # 80000828 <uartintr>
    80002594:	b7ed                	j	8000257e <devintr+0x4c>
      virtio_disk_intr(irq - VIRTIO0_IRQ);
    80002596:	853e                	mv	a0,a5
    80002598:	00004097          	auipc	ra,0x4
    8000259c:	cb0080e7          	jalr	-848(ra) # 80006248 <virtio_disk_intr>
    800025a0:	bff9                	j	8000257e <devintr+0x4c>
    if(cpuid() == 0){
    800025a2:	fffff097          	auipc	ra,0xfffff
    800025a6:	250080e7          	jalr	592(ra) # 800017f2 <cpuid>
    800025aa:	c901                	beqz	a0,800025ba <devintr+0x88>
  asm volatile("csrr %0, sip" : "=r" (x) );
    800025ac:	144027f3          	csrr	a5,sip
    w_sip(r_sip() & ~2);
    800025b0:	9bf5                	andi	a5,a5,-3
  asm volatile("csrw sip, %0" : : "r" (x));
    800025b2:	14479073          	csrw	sip,a5
    return 2;
    800025b6:	4509                	li	a0,2
    800025b8:	bf61                	j	80002550 <devintr+0x1e>
      clockintr();
    800025ba:	00000097          	auipc	ra,0x0
    800025be:	f32080e7          	jalr	-206(ra) # 800024ec <clockintr>
    800025c2:	b7ed                	j	800025ac <devintr+0x7a>

00000000800025c4 <usertrap>:
{
    800025c4:	1101                	addi	sp,sp,-32
    800025c6:	ec06                	sd	ra,24(sp)
    800025c8:	e822                	sd	s0,16(sp)
    800025ca:	e426                	sd	s1,8(sp)
    800025cc:	e04a                	sd	s2,0(sp)
    800025ce:	1000                	addi	s0,sp,32
  asm volatile("csrr %0, sstatus" : "=r" (x) );
    800025d0:	100027f3          	csrr	a5,sstatus
  if((r_sstatus() & SSTATUS_SPP) != 0)
    800025d4:	1007f793          	andi	a5,a5,256
    800025d8:	e7bd                	bnez	a5,80002646 <usertrap+0x82>
  asm volatile("csrw stvec, %0" : : "r" (x));
    800025da:	00003797          	auipc	a5,0x3
    800025de:	58678793          	addi	a5,a5,1414 # 80005b60 <kernelvec>
    800025e2:	10579073          	csrw	stvec,a5
  struct proc *p = myproc();
    800025e6:	fffff097          	auipc	ra,0xfffff
    800025ea:	238080e7          	jalr	568(ra) # 8000181e <myproc>
    800025ee:	84aa                	mv	s1,a0
  p->tf->epc = r_sepc();
    800025f0:	693c                	ld	a5,80(a0)
  asm volatile("csrr %0, sepc" : "=r" (x) );
    800025f2:	14102773          	csrr	a4,sepc
    800025f6:	ef98                	sd	a4,24(a5)
  asm volatile("csrr %0, scause" : "=r" (x) );
    800025f8:	14202773          	csrr	a4,scause
  if(r_scause() == 8){
    800025fc:	47a1                	li	a5,8
    800025fe:	06f71163          	bne	a4,a5,80002660 <usertrap+0x9c>
    if(p->killed)
    80002602:	591c                	lw	a5,48(a0)
    80002604:	eba9                	bnez	a5,80002656 <usertrap+0x92>
    p->tf->epc += 4;
    80002606:	68b8                	ld	a4,80(s1)
    80002608:	6f1c                	ld	a5,24(a4)
    8000260a:	0791                	addi	a5,a5,4
    8000260c:	ef1c                	sd	a5,24(a4)
  asm volatile("csrr %0, sie" : "=r" (x) );
    8000260e:	104027f3          	csrr	a5,sie
  w_sie(r_sie() | SIE_SEIE | SIE_STIE | SIE_SSIE);
    80002612:	2227e793          	ori	a5,a5,546
  asm volatile("csrw sie, %0" : : "r" (x));
    80002616:	10479073          	csrw	sie,a5
  asm volatile("csrr %0, sstatus" : "=r" (x) );
    8000261a:	100027f3          	csrr	a5,sstatus
  w_sstatus(r_sstatus() | SSTATUS_SIE);
    8000261e:	0027e793          	ori	a5,a5,2
  asm volatile("csrw sstatus, %0" : : "r" (x));
    80002622:	10079073          	csrw	sstatus,a5
    syscall();
    80002626:	00000097          	auipc	ra,0x0
    8000262a:	2dc080e7          	jalr	732(ra) # 80002902 <syscall>
  if(p->killed)
    8000262e:	589c                	lw	a5,48(s1)
    80002630:	e7d1                	bnez	a5,800026bc <usertrap+0xf8>
  usertrapret();
    80002632:	00000097          	auipc	ra,0x0
    80002636:	e1c080e7          	jalr	-484(ra) # 8000244e <usertrapret>
}
    8000263a:	60e2                	ld	ra,24(sp)
    8000263c:	6442                	ld	s0,16(sp)
    8000263e:	64a2                	ld	s1,8(sp)
    80002640:	6902                	ld	s2,0(sp)
    80002642:	6105                	addi	sp,sp,32
    80002644:	8082                	ret
    panic("usertrap: not from user mode");
    80002646:	00005517          	auipc	a0,0x5
    8000264a:	d6250513          	addi	a0,a0,-670 # 800073a8 <userret+0x318>
    8000264e:	ffffe097          	auipc	ra,0xffffe
    80002652:	efa080e7          	jalr	-262(ra) # 80000548 <panic>
      exit();
    80002656:	00000097          	auipc	ra,0x0
    8000265a:	8b8080e7          	jalr	-1864(ra) # 80001f0e <exit>
    8000265e:	b765                	j	80002606 <usertrap+0x42>
  } else if((which_dev = devintr()) != 0){
    80002660:	00000097          	auipc	ra,0x0
    80002664:	ed2080e7          	jalr	-302(ra) # 80002532 <devintr>
    80002668:	892a                	mv	s2,a0
    8000266a:	c501                	beqz	a0,80002672 <usertrap+0xae>
  if(p->killed)
    8000266c:	589c                	lw	a5,48(s1)
    8000266e:	cf9d                	beqz	a5,800026ac <usertrap+0xe8>
    80002670:	a815                	j	800026a4 <usertrap+0xe0>
  asm volatile("csrr %0, scause" : "=r" (x) );
    80002672:	142025f3          	csrr	a1,scause
    printf("usertrap(): unexpected scause %p pid=%d\n", r_scause(), p->pid);
    80002676:	58d0                	lw	a2,52(s1)
    80002678:	00005517          	auipc	a0,0x5
    8000267c:	d5050513          	addi	a0,a0,-688 # 800073c8 <userret+0x338>
    80002680:	ffffe097          	auipc	ra,0xffffe
    80002684:	f12080e7          	jalr	-238(ra) # 80000592 <printf>
  asm volatile("csrr %0, sepc" : "=r" (x) );
    80002688:	141025f3          	csrr	a1,sepc
  asm volatile("csrr %0, stval" : "=r" (x) );
    8000268c:	14302673          	csrr	a2,stval
    printf("            sepc=%p stval=%p\n", r_sepc(), r_stval());
    80002690:	00005517          	auipc	a0,0x5
    80002694:	d6850513          	addi	a0,a0,-664 # 800073f8 <userret+0x368>
    80002698:	ffffe097          	auipc	ra,0xffffe
    8000269c:	efa080e7          	jalr	-262(ra) # 80000592 <printf>
    p->killed = 1;
    800026a0:	4785                	li	a5,1
    800026a2:	d89c                	sw	a5,48(s1)
    exit();
    800026a4:	00000097          	auipc	ra,0x0
    800026a8:	86a080e7          	jalr	-1942(ra) # 80001f0e <exit>
  if(which_dev == 2)
    800026ac:	4789                	li	a5,2
    800026ae:	f8f912e3          	bne	s2,a5,80002632 <usertrap+0x6e>
    yield();
    800026b2:	00000097          	auipc	ra,0x0
    800026b6:	93a080e7          	jalr	-1734(ra) # 80001fec <yield>
    800026ba:	bfa5                	j	80002632 <usertrap+0x6e>
  int which_dev = 0;
    800026bc:	4901                	li	s2,0
    800026be:	b7dd                	j	800026a4 <usertrap+0xe0>

00000000800026c0 <kerneltrap>:
{
    800026c0:	7179                	addi	sp,sp,-48
    800026c2:	f406                	sd	ra,40(sp)
    800026c4:	f022                	sd	s0,32(sp)
    800026c6:	ec26                	sd	s1,24(sp)
    800026c8:	e84a                	sd	s2,16(sp)
    800026ca:	e44e                	sd	s3,8(sp)
    800026cc:	1800                	addi	s0,sp,48
  asm volatile("csrr %0, sepc" : "=r" (x) );
    800026ce:	14102973          	csrr	s2,sepc
  asm volatile("csrr %0, sstatus" : "=r" (x) );
    800026d2:	100024f3          	csrr	s1,sstatus
  asm volatile("csrr %0, scause" : "=r" (x) );
    800026d6:	142029f3          	csrr	s3,scause
  if((sstatus & SSTATUS_SPP) == 0)
    800026da:	1004f793          	andi	a5,s1,256
    800026de:	cb85                	beqz	a5,8000270e <kerneltrap+0x4e>
  asm volatile("csrr %0, sstatus" : "=r" (x) );
    800026e0:	100027f3          	csrr	a5,sstatus
  return (x & SSTATUS_SIE) != 0;
    800026e4:	8b89                	andi	a5,a5,2
  if(intr_get() != 0)
    800026e6:	ef85                	bnez	a5,8000271e <kerneltrap+0x5e>
  if((which_dev = devintr()) == 0){
    800026e8:	00000097          	auipc	ra,0x0
    800026ec:	e4a080e7          	jalr	-438(ra) # 80002532 <devintr>
    800026f0:	cd1d                	beqz	a0,8000272e <kerneltrap+0x6e>
  if(which_dev == 2 && myproc() != 0 && myproc()->state == RUNNING)
    800026f2:	4789                	li	a5,2
    800026f4:	06f50a63          	beq	a0,a5,80002768 <kerneltrap+0xa8>
  asm volatile("csrw sepc, %0" : : "r" (x));
    800026f8:	14191073          	csrw	sepc,s2
  asm volatile("csrw sstatus, %0" : : "r" (x));
    800026fc:	10049073          	csrw	sstatus,s1
}
    80002700:	70a2                	ld	ra,40(sp)
    80002702:	7402                	ld	s0,32(sp)
    80002704:	64e2                	ld	s1,24(sp)
    80002706:	6942                	ld	s2,16(sp)
    80002708:	69a2                	ld	s3,8(sp)
    8000270a:	6145                	addi	sp,sp,48
    8000270c:	8082                	ret
    panic("kerneltrap: not from supervisor mode");
    8000270e:	00005517          	auipc	a0,0x5
    80002712:	d0a50513          	addi	a0,a0,-758 # 80007418 <userret+0x388>
    80002716:	ffffe097          	auipc	ra,0xffffe
    8000271a:	e32080e7          	jalr	-462(ra) # 80000548 <panic>
    panic("kerneltrap: interrupts enabled");
    8000271e:	00005517          	auipc	a0,0x5
    80002722:	d2250513          	addi	a0,a0,-734 # 80007440 <userret+0x3b0>
    80002726:	ffffe097          	auipc	ra,0xffffe
    8000272a:	e22080e7          	jalr	-478(ra) # 80000548 <panic>
    printf("scause %p\n", scause);
    8000272e:	85ce                	mv	a1,s3
    80002730:	00005517          	auipc	a0,0x5
    80002734:	d3050513          	addi	a0,a0,-720 # 80007460 <userret+0x3d0>
    80002738:	ffffe097          	auipc	ra,0xffffe
    8000273c:	e5a080e7          	jalr	-422(ra) # 80000592 <printf>
  asm volatile("csrr %0, sepc" : "=r" (x) );
    80002740:	141025f3          	csrr	a1,sepc
  asm volatile("csrr %0, stval" : "=r" (x) );
    80002744:	14302673          	csrr	a2,stval
    printf("sepc=%p stval=%p\n", r_sepc(), r_stval());
    80002748:	00005517          	auipc	a0,0x5
    8000274c:	d2850513          	addi	a0,a0,-728 # 80007470 <userret+0x3e0>
    80002750:	ffffe097          	auipc	ra,0xffffe
    80002754:	e42080e7          	jalr	-446(ra) # 80000592 <printf>
    panic("kerneltrap");
    80002758:	00005517          	auipc	a0,0x5
    8000275c:	d3050513          	addi	a0,a0,-720 # 80007488 <userret+0x3f8>
    80002760:	ffffe097          	auipc	ra,0xffffe
    80002764:	de8080e7          	jalr	-536(ra) # 80000548 <panic>
  if(which_dev == 2 && myproc() != 0 && myproc()->state == RUNNING)
    80002768:	fffff097          	auipc	ra,0xfffff
    8000276c:	0b6080e7          	jalr	182(ra) # 8000181e <myproc>
    80002770:	d541                	beqz	a0,800026f8 <kerneltrap+0x38>
    80002772:	fffff097          	auipc	ra,0xfffff
    80002776:	0ac080e7          	jalr	172(ra) # 8000181e <myproc>
    8000277a:	4d18                	lw	a4,24(a0)
    8000277c:	478d                	li	a5,3
    8000277e:	f6f71de3          	bne	a4,a5,800026f8 <kerneltrap+0x38>
    yield();
    80002782:	00000097          	auipc	ra,0x0
    80002786:	86a080e7          	jalr	-1942(ra) # 80001fec <yield>
    8000278a:	b7bd                	j	800026f8 <kerneltrap+0x38>

000000008000278c <argraw>:
  return strlen(buf);
}

static uint64
argraw(int n)
{
    8000278c:	1101                	addi	sp,sp,-32
    8000278e:	ec06                	sd	ra,24(sp)
    80002790:	e822                	sd	s0,16(sp)
    80002792:	e426                	sd	s1,8(sp)
    80002794:	1000                	addi	s0,sp,32
    80002796:	84aa                	mv	s1,a0
  struct proc *p = myproc();
    80002798:	fffff097          	auipc	ra,0xfffff
    8000279c:	086080e7          	jalr	134(ra) # 8000181e <myproc>
  switch (n) {
    800027a0:	4795                	li	a5,5
    800027a2:	0497e163          	bltu	a5,s1,800027e4 <argraw+0x58>
    800027a6:	048a                	slli	s1,s1,0x2
    800027a8:	00005717          	auipc	a4,0x5
    800027ac:	14870713          	addi	a4,a4,328 # 800078f0 <states.0+0x28>
    800027b0:	94ba                	add	s1,s1,a4
    800027b2:	409c                	lw	a5,0(s1)
    800027b4:	97ba                	add	a5,a5,a4
    800027b6:	8782                	jr	a5
  case 0:
    return p->tf->a0;
    800027b8:	693c                	ld	a5,80(a0)
    800027ba:	7ba8                	ld	a0,112(a5)
  case 5:
    return p->tf->a5;
  }
  panic("argraw");
  return -1;
}
    800027bc:	60e2                	ld	ra,24(sp)
    800027be:	6442                	ld	s0,16(sp)
    800027c0:	64a2                	ld	s1,8(sp)
    800027c2:	6105                	addi	sp,sp,32
    800027c4:	8082                	ret
    return p->tf->a1;
    800027c6:	693c                	ld	a5,80(a0)
    800027c8:	7fa8                	ld	a0,120(a5)
    800027ca:	bfcd                	j	800027bc <argraw+0x30>
    return p->tf->a2;
    800027cc:	693c                	ld	a5,80(a0)
    800027ce:	63c8                	ld	a0,128(a5)
    800027d0:	b7f5                	j	800027bc <argraw+0x30>
    return p->tf->a3;
    800027d2:	693c                	ld	a5,80(a0)
    800027d4:	67c8                	ld	a0,136(a5)
    800027d6:	b7dd                	j	800027bc <argraw+0x30>
    return p->tf->a4;
    800027d8:	693c                	ld	a5,80(a0)
    800027da:	6bc8                	ld	a0,144(a5)
    800027dc:	b7c5                	j	800027bc <argraw+0x30>
    return p->tf->a5;
    800027de:	693c                	ld	a5,80(a0)
    800027e0:	6fc8                	ld	a0,152(a5)
    800027e2:	bfe9                	j	800027bc <argraw+0x30>
  panic("argraw");
    800027e4:	00005517          	auipc	a0,0x5
    800027e8:	cb450513          	addi	a0,a0,-844 # 80007498 <userret+0x408>
    800027ec:	ffffe097          	auipc	ra,0xffffe
    800027f0:	d5c080e7          	jalr	-676(ra) # 80000548 <panic>

00000000800027f4 <fetchaddr>:
{
    800027f4:	1101                	addi	sp,sp,-32
    800027f6:	ec06                	sd	ra,24(sp)
    800027f8:	e822                	sd	s0,16(sp)
    800027fa:	e426                	sd	s1,8(sp)
    800027fc:	e04a                	sd	s2,0(sp)
    800027fe:	1000                	addi	s0,sp,32
    80002800:	84aa                	mv	s1,a0
    80002802:	892e                	mv	s2,a1
  struct proc *p = myproc();
    80002804:	fffff097          	auipc	ra,0xfffff
    80002808:	01a080e7          	jalr	26(ra) # 8000181e <myproc>
  if(addr >= p->sz || addr+sizeof(uint64) > p->sz)
    8000280c:	613c                	ld	a5,64(a0)
    8000280e:	02f4f863          	bgeu	s1,a5,8000283e <fetchaddr+0x4a>
    80002812:	00848713          	addi	a4,s1,8
    80002816:	02e7e663          	bltu	a5,a4,80002842 <fetchaddr+0x4e>
  if(copyin(p->pagetable, (char *)ip, addr, sizeof(*ip)) != 0)
    8000281a:	46a1                	li	a3,8
    8000281c:	8626                	mv	a2,s1
    8000281e:	85ca                	mv	a1,s2
    80002820:	6528                	ld	a0,72(a0)
    80002822:	fffff097          	auipc	ra,0xfffff
    80002826:	db2080e7          	jalr	-590(ra) # 800015d4 <copyin>
    8000282a:	00a03533          	snez	a0,a0
    8000282e:	40a00533          	neg	a0,a0
}
    80002832:	60e2                	ld	ra,24(sp)
    80002834:	6442                	ld	s0,16(sp)
    80002836:	64a2                	ld	s1,8(sp)
    80002838:	6902                	ld	s2,0(sp)
    8000283a:	6105                	addi	sp,sp,32
    8000283c:	8082                	ret
    return -1;
    8000283e:	557d                	li	a0,-1
    80002840:	bfcd                	j	80002832 <fetchaddr+0x3e>
    80002842:	557d                	li	a0,-1
    80002844:	b7fd                	j	80002832 <fetchaddr+0x3e>

0000000080002846 <fetchstr>:
{
    80002846:	7179                	addi	sp,sp,-48
    80002848:	f406                	sd	ra,40(sp)
    8000284a:	f022                	sd	s0,32(sp)
    8000284c:	ec26                	sd	s1,24(sp)
    8000284e:	e84a                	sd	s2,16(sp)
    80002850:	e44e                	sd	s3,8(sp)
    80002852:	1800                	addi	s0,sp,48
    80002854:	892a                	mv	s2,a0
    80002856:	84ae                	mv	s1,a1
    80002858:	89b2                	mv	s3,a2
  struct proc *p = myproc();
    8000285a:	fffff097          	auipc	ra,0xfffff
    8000285e:	fc4080e7          	jalr	-60(ra) # 8000181e <myproc>
  int err = copyinstr(p->pagetable, buf, addr, max);
    80002862:	86ce                	mv	a3,s3
    80002864:	864a                	mv	a2,s2
    80002866:	85a6                	mv	a1,s1
    80002868:	6528                	ld	a0,72(a0)
    8000286a:	fffff097          	auipc	ra,0xfffff
    8000286e:	dfe080e7          	jalr	-514(ra) # 80001668 <copyinstr>
  if(err < 0)
    80002872:	00054763          	bltz	a0,80002880 <fetchstr+0x3a>
  return strlen(buf);
    80002876:	8526                	mv	a0,s1
    80002878:	ffffe097          	auipc	ra,0xffffe
    8000287c:	48e080e7          	jalr	1166(ra) # 80000d06 <strlen>
}
    80002880:	70a2                	ld	ra,40(sp)
    80002882:	7402                	ld	s0,32(sp)
    80002884:	64e2                	ld	s1,24(sp)
    80002886:	6942                	ld	s2,16(sp)
    80002888:	69a2                	ld	s3,8(sp)
    8000288a:	6145                	addi	sp,sp,48
    8000288c:	8082                	ret

000000008000288e <argint>:

// Fetch the nth 32-bit system call argument.
int
argint(int n, int *ip)
{
    8000288e:	1101                	addi	sp,sp,-32
    80002890:	ec06                	sd	ra,24(sp)
    80002892:	e822                	sd	s0,16(sp)
    80002894:	e426                	sd	s1,8(sp)
    80002896:	1000                	addi	s0,sp,32
    80002898:	84ae                	mv	s1,a1
  *ip = argraw(n);
    8000289a:	00000097          	auipc	ra,0x0
    8000289e:	ef2080e7          	jalr	-270(ra) # 8000278c <argraw>
    800028a2:	c088                	sw	a0,0(s1)
  return 0;
}
    800028a4:	4501                	li	a0,0
    800028a6:	60e2                	ld	ra,24(sp)
    800028a8:	6442                	ld	s0,16(sp)
    800028aa:	64a2                	ld	s1,8(sp)
    800028ac:	6105                	addi	sp,sp,32
    800028ae:	8082                	ret

00000000800028b0 <argaddr>:
// Retrieve an argument as a pointer.
// Doesn't check for legality, since
// copyin/copyout will do that.
int
argaddr(int n, uint64 *ip)
{
    800028b0:	1101                	addi	sp,sp,-32
    800028b2:	ec06                	sd	ra,24(sp)
    800028b4:	e822                	sd	s0,16(sp)
    800028b6:	e426                	sd	s1,8(sp)
    800028b8:	1000                	addi	s0,sp,32
    800028ba:	84ae                	mv	s1,a1
  *ip = argraw(n);
    800028bc:	00000097          	auipc	ra,0x0
    800028c0:	ed0080e7          	jalr	-304(ra) # 8000278c <argraw>
    800028c4:	e088                	sd	a0,0(s1)
  return 0;
}
    800028c6:	4501                	li	a0,0
    800028c8:	60e2                	ld	ra,24(sp)
    800028ca:	6442                	ld	s0,16(sp)
    800028cc:	64a2                	ld	s1,8(sp)
    800028ce:	6105                	addi	sp,sp,32
    800028d0:	8082                	ret

00000000800028d2 <argstr>:
// Fetch the nth word-sized system call argument as a null-terminated string.
// Copies into buf, at most max.
// Returns string length if OK (including nul), -1 if error.
int
argstr(int n, char *buf, int max)
{
    800028d2:	1101                	addi	sp,sp,-32
    800028d4:	ec06                	sd	ra,24(sp)
    800028d6:	e822                	sd	s0,16(sp)
    800028d8:	e426                	sd	s1,8(sp)
    800028da:	e04a                	sd	s2,0(sp)
    800028dc:	1000                	addi	s0,sp,32
    800028de:	84ae                	mv	s1,a1
    800028e0:	8932                	mv	s2,a2
  *ip = argraw(n);
    800028e2:	00000097          	auipc	ra,0x0
    800028e6:	eaa080e7          	jalr	-342(ra) # 8000278c <argraw>
  uint64 addr;
  if(argaddr(n, &addr) < 0)
    return -1;
  return fetchstr(addr, buf, max);
    800028ea:	864a                	mv	a2,s2
    800028ec:	85a6                	mv	a1,s1
    800028ee:	00000097          	auipc	ra,0x0
    800028f2:	f58080e7          	jalr	-168(ra) # 80002846 <fetchstr>
}
    800028f6:	60e2                	ld	ra,24(sp)
    800028f8:	6442                	ld	s0,16(sp)
    800028fa:	64a2                	ld	s1,8(sp)
    800028fc:	6902                	ld	s2,0(sp)
    800028fe:	6105                	addi	sp,sp,32
    80002900:	8082                	ret

0000000080002902 <syscall>:
[SYS_crash]   sys_crash,
};

void
syscall(void)
{
    80002902:	1101                	addi	sp,sp,-32
    80002904:	ec06                	sd	ra,24(sp)
    80002906:	e822                	sd	s0,16(sp)
    80002908:	e426                	sd	s1,8(sp)
    8000290a:	e04a                	sd	s2,0(sp)
    8000290c:	1000                	addi	s0,sp,32
  int num;
  struct proc *p = myproc();
    8000290e:	fffff097          	auipc	ra,0xfffff
    80002912:	f10080e7          	jalr	-240(ra) # 8000181e <myproc>
    80002916:	84aa                	mv	s1,a0

  num = p->tf->a7;
    80002918:	05053903          	ld	s2,80(a0)
    8000291c:	0a893783          	ld	a5,168(s2)
    80002920:	0007869b          	sext.w	a3,a5
  if(num > 0 && num < NELEM(syscalls) && syscalls[num]) {
    80002924:	37fd                	addiw	a5,a5,-1
    80002926:	4759                	li	a4,22
    80002928:	00f76f63          	bltu	a4,a5,80002946 <syscall+0x44>
    8000292c:	00369713          	slli	a4,a3,0x3
    80002930:	00005797          	auipc	a5,0x5
    80002934:	fd878793          	addi	a5,a5,-40 # 80007908 <syscalls>
    80002938:	97ba                	add	a5,a5,a4
    8000293a:	639c                	ld	a5,0(a5)
    8000293c:	c789                	beqz	a5,80002946 <syscall+0x44>
    p->tf->a0 = syscalls[num]();
    8000293e:	9782                	jalr	a5
    80002940:	06a93823          	sd	a0,112(s2)
    80002944:	a839                	j	80002962 <syscall+0x60>
  } else {
    printf("%d %s: unknown sys call %d\n",
    80002946:	15048613          	addi	a2,s1,336
    8000294a:	58cc                	lw	a1,52(s1)
    8000294c:	00005517          	auipc	a0,0x5
    80002950:	b5450513          	addi	a0,a0,-1196 # 800074a0 <userret+0x410>
    80002954:	ffffe097          	auipc	ra,0xffffe
    80002958:	c3e080e7          	jalr	-962(ra) # 80000592 <printf>
            p->pid, p->name, num);
    p->tf->a0 = -1;
    8000295c:	68bc                	ld	a5,80(s1)
    8000295e:	577d                	li	a4,-1
    80002960:	fbb8                	sd	a4,112(a5)
  }
}
    80002962:	60e2                	ld	ra,24(sp)
    80002964:	6442                	ld	s0,16(sp)
    80002966:	64a2                	ld	s1,8(sp)
    80002968:	6902                	ld	s2,0(sp)
    8000296a:	6105                	addi	sp,sp,32
    8000296c:	8082                	ret

000000008000296e <sys_exit>:
#include "spinlock.h"
#include "proc.h"

uint64
sys_exit(void)
{
    8000296e:	1141                	addi	sp,sp,-16
    80002970:	e406                	sd	ra,8(sp)
    80002972:	e022                	sd	s0,0(sp)
    80002974:	0800                	addi	s0,sp,16
  exit();
    80002976:	fffff097          	auipc	ra,0xfffff
    8000297a:	598080e7          	jalr	1432(ra) # 80001f0e <exit>
  return 0;  // not reached
}
    8000297e:	4501                	li	a0,0
    80002980:	60a2                	ld	ra,8(sp)
    80002982:	6402                	ld	s0,0(sp)
    80002984:	0141                	addi	sp,sp,16
    80002986:	8082                	ret

0000000080002988 <sys_getpid>:

uint64
sys_getpid(void)
{
    80002988:	1141                	addi	sp,sp,-16
    8000298a:	e406                	sd	ra,8(sp)
    8000298c:	e022                	sd	s0,0(sp)
    8000298e:	0800                	addi	s0,sp,16
  return myproc()->pid;
    80002990:	fffff097          	auipc	ra,0xfffff
    80002994:	e8e080e7          	jalr	-370(ra) # 8000181e <myproc>
}
    80002998:	5948                	lw	a0,52(a0)
    8000299a:	60a2                	ld	ra,8(sp)
    8000299c:	6402                	ld	s0,0(sp)
    8000299e:	0141                	addi	sp,sp,16
    800029a0:	8082                	ret

00000000800029a2 <sys_fork>:

uint64
sys_fork(void)
{
    800029a2:	1141                	addi	sp,sp,-16
    800029a4:	e406                	sd	ra,8(sp)
    800029a6:	e022                	sd	s0,0(sp)
    800029a8:	0800                	addi	s0,sp,16
  return fork();
    800029aa:	fffff097          	auipc	ra,0xfffff
    800029ae:	1de080e7          	jalr	478(ra) # 80001b88 <fork>
}
    800029b2:	60a2                	ld	ra,8(sp)
    800029b4:	6402                	ld	s0,0(sp)
    800029b6:	0141                	addi	sp,sp,16
    800029b8:	8082                	ret

00000000800029ba <sys_wait>:

uint64
sys_wait(void)
{
    800029ba:	1141                	addi	sp,sp,-16
    800029bc:	e406                	sd	ra,8(sp)
    800029be:	e022                	sd	s0,0(sp)
    800029c0:	0800                	addi	s0,sp,16
  return wait();
    800029c2:	fffff097          	auipc	ra,0xfffff
    800029c6:	6e4080e7          	jalr	1764(ra) # 800020a6 <wait>
}
    800029ca:	60a2                	ld	ra,8(sp)
    800029cc:	6402                	ld	s0,0(sp)
    800029ce:	0141                	addi	sp,sp,16
    800029d0:	8082                	ret

00000000800029d2 <sys_sbrk>:

uint64
sys_sbrk(void)
{
    800029d2:	7179                	addi	sp,sp,-48
    800029d4:	f406                	sd	ra,40(sp)
    800029d6:	f022                	sd	s0,32(sp)
    800029d8:	ec26                	sd	s1,24(sp)
    800029da:	1800                	addi	s0,sp,48
  int addr;
  int n;

  if(argint(0, &n) < 0)
    800029dc:	fdc40593          	addi	a1,s0,-36
    800029e0:	4501                	li	a0,0
    800029e2:	00000097          	auipc	ra,0x0
    800029e6:	eac080e7          	jalr	-340(ra) # 8000288e <argint>
    return -1;
    800029ea:	54fd                	li	s1,-1
  if(argint(0, &n) < 0)
    800029ec:	00054f63          	bltz	a0,80002a0a <sys_sbrk+0x38>
  addr = myproc()->sz;
    800029f0:	fffff097          	auipc	ra,0xfffff
    800029f4:	e2e080e7          	jalr	-466(ra) # 8000181e <myproc>
    800029f8:	4124                	lw	s1,64(a0)
  if(growproc(n) < 0)
    800029fa:	fdc42503          	lw	a0,-36(s0)
    800029fe:	fffff097          	auipc	ra,0xfffff
    80002a02:	112080e7          	jalr	274(ra) # 80001b10 <growproc>
    80002a06:	00054863          	bltz	a0,80002a16 <sys_sbrk+0x44>
    return -1;
  return addr;
}
    80002a0a:	8526                	mv	a0,s1
    80002a0c:	70a2                	ld	ra,40(sp)
    80002a0e:	7402                	ld	s0,32(sp)
    80002a10:	64e2                	ld	s1,24(sp)
    80002a12:	6145                	addi	sp,sp,48
    80002a14:	8082                	ret
    return -1;
    80002a16:	54fd                	li	s1,-1
    80002a18:	bfcd                	j	80002a0a <sys_sbrk+0x38>

0000000080002a1a <sys_sleep>:

uint64
sys_sleep(void)
{
    80002a1a:	7139                	addi	sp,sp,-64
    80002a1c:	fc06                	sd	ra,56(sp)
    80002a1e:	f822                	sd	s0,48(sp)
    80002a20:	f426                	sd	s1,40(sp)
    80002a22:	f04a                	sd	s2,32(sp)
    80002a24:	ec4e                	sd	s3,24(sp)
    80002a26:	0080                	addi	s0,sp,64
  int n;
  uint ticks0;

  if(argint(0, &n) < 0)
    80002a28:	fcc40593          	addi	a1,s0,-52
    80002a2c:	4501                	li	a0,0
    80002a2e:	00000097          	auipc	ra,0x0
    80002a32:	e60080e7          	jalr	-416(ra) # 8000288e <argint>
    return -1;
    80002a36:	57fd                	li	a5,-1
  if(argint(0, &n) < 0)
    80002a38:	06054563          	bltz	a0,80002aa2 <sys_sleep+0x88>
  acquire(&tickslock);
    80002a3c:	00015517          	auipc	a0,0x15
    80002a40:	ac450513          	addi	a0,a0,-1340 # 80017500 <tickslock>
    80002a44:	ffffe097          	auipc	ra,0xffffe
    80002a48:	07a080e7          	jalr	122(ra) # 80000abe <acquire>
  ticks0 = ticks;
    80002a4c:	00026917          	auipc	s2,0x26
    80002a50:	5dc92903          	lw	s2,1500(s2) # 80029028 <ticks>
  while(ticks - ticks0 < n){
    80002a54:	fcc42783          	lw	a5,-52(s0)
    80002a58:	cf85                	beqz	a5,80002a90 <sys_sleep+0x76>
    if(myproc()->killed){
      release(&tickslock);
      return -1;
    }
    sleep(&ticks, &tickslock);
    80002a5a:	00015997          	auipc	s3,0x15
    80002a5e:	aa698993          	addi	s3,s3,-1370 # 80017500 <tickslock>
    80002a62:	00026497          	auipc	s1,0x26
    80002a66:	5c648493          	addi	s1,s1,1478 # 80029028 <ticks>
    if(myproc()->killed){
    80002a6a:	fffff097          	auipc	ra,0xfffff
    80002a6e:	db4080e7          	jalr	-588(ra) # 8000181e <myproc>
    80002a72:	591c                	lw	a5,48(a0)
    80002a74:	ef9d                	bnez	a5,80002ab2 <sys_sleep+0x98>
    sleep(&ticks, &tickslock);
    80002a76:	85ce                	mv	a1,s3
    80002a78:	8526                	mv	a0,s1
    80002a7a:	fffff097          	auipc	ra,0xfffff
    80002a7e:	5ae080e7          	jalr	1454(ra) # 80002028 <sleep>
  while(ticks - ticks0 < n){
    80002a82:	409c                	lw	a5,0(s1)
    80002a84:	412787bb          	subw	a5,a5,s2
    80002a88:	fcc42703          	lw	a4,-52(s0)
    80002a8c:	fce7efe3          	bltu	a5,a4,80002a6a <sys_sleep+0x50>
  }
  release(&tickslock);
    80002a90:	00015517          	auipc	a0,0x15
    80002a94:	a7050513          	addi	a0,a0,-1424 # 80017500 <tickslock>
    80002a98:	ffffe097          	auipc	ra,0xffffe
    80002a9c:	08e080e7          	jalr	142(ra) # 80000b26 <release>
  return 0;
    80002aa0:	4781                	li	a5,0
}
    80002aa2:	853e                	mv	a0,a5
    80002aa4:	70e2                	ld	ra,56(sp)
    80002aa6:	7442                	ld	s0,48(sp)
    80002aa8:	74a2                	ld	s1,40(sp)
    80002aaa:	7902                	ld	s2,32(sp)
    80002aac:	69e2                	ld	s3,24(sp)
    80002aae:	6121                	addi	sp,sp,64
    80002ab0:	8082                	ret
      release(&tickslock);
    80002ab2:	00015517          	auipc	a0,0x15
    80002ab6:	a4e50513          	addi	a0,a0,-1458 # 80017500 <tickslock>
    80002aba:	ffffe097          	auipc	ra,0xffffe
    80002abe:	06c080e7          	jalr	108(ra) # 80000b26 <release>
      return -1;
    80002ac2:	57fd                	li	a5,-1
    80002ac4:	bff9                	j	80002aa2 <sys_sleep+0x88>

0000000080002ac6 <sys_kill>:

uint64
sys_kill(void)
{
    80002ac6:	1101                	addi	sp,sp,-32
    80002ac8:	ec06                	sd	ra,24(sp)
    80002aca:	e822                	sd	s0,16(sp)
    80002acc:	1000                	addi	s0,sp,32
  int pid;

  if(argint(0, &pid) < 0)
    80002ace:	fec40593          	addi	a1,s0,-20
    80002ad2:	4501                	li	a0,0
    80002ad4:	00000097          	auipc	ra,0x0
    80002ad8:	dba080e7          	jalr	-582(ra) # 8000288e <argint>
    80002adc:	87aa                	mv	a5,a0
    return -1;
    80002ade:	557d                	li	a0,-1
  if(argint(0, &pid) < 0)
    80002ae0:	0007c863          	bltz	a5,80002af0 <sys_kill+0x2a>
  return kill(pid);
    80002ae4:	fec42503          	lw	a0,-20(s0)
    80002ae8:	fffff097          	auipc	ra,0xfffff
    80002aec:	6f0080e7          	jalr	1776(ra) # 800021d8 <kill>
}
    80002af0:	60e2                	ld	ra,24(sp)
    80002af2:	6442                	ld	s0,16(sp)
    80002af4:	6105                	addi	sp,sp,32
    80002af6:	8082                	ret

0000000080002af8 <sys_uptime>:

// return how many clock tick interrupts have occurred
// since start.
uint64
sys_uptime(void)
{
    80002af8:	1101                	addi	sp,sp,-32
    80002afa:	ec06                	sd	ra,24(sp)
    80002afc:	e822                	sd	s0,16(sp)
    80002afe:	e426                	sd	s1,8(sp)
    80002b00:	1000                	addi	s0,sp,32
  uint xticks;

  acquire(&tickslock);
    80002b02:	00015517          	auipc	a0,0x15
    80002b06:	9fe50513          	addi	a0,a0,-1538 # 80017500 <tickslock>
    80002b0a:	ffffe097          	auipc	ra,0xffffe
    80002b0e:	fb4080e7          	jalr	-76(ra) # 80000abe <acquire>
  xticks = ticks;
    80002b12:	00026497          	auipc	s1,0x26
    80002b16:	5164a483          	lw	s1,1302(s1) # 80029028 <ticks>
  release(&tickslock);
    80002b1a:	00015517          	auipc	a0,0x15
    80002b1e:	9e650513          	addi	a0,a0,-1562 # 80017500 <tickslock>
    80002b22:	ffffe097          	auipc	ra,0xffffe
    80002b26:	004080e7          	jalr	4(ra) # 80000b26 <release>
  return xticks;
}
    80002b2a:	02049513          	slli	a0,s1,0x20
    80002b2e:	9101                	srli	a0,a0,0x20
    80002b30:	60e2                	ld	ra,24(sp)
    80002b32:	6442                	ld	s0,16(sp)
    80002b34:	64a2                	ld	s1,8(sp)
    80002b36:	6105                	addi	sp,sp,32
    80002b38:	8082                	ret

0000000080002b3a <binit>:
  struct buf head;
} bcache;

void
binit(void)
{
    80002b3a:	7179                	addi	sp,sp,-48
    80002b3c:	f406                	sd	ra,40(sp)
    80002b3e:	f022                	sd	s0,32(sp)
    80002b40:	ec26                	sd	s1,24(sp)
    80002b42:	e84a                	sd	s2,16(sp)
    80002b44:	e44e                	sd	s3,8(sp)
    80002b46:	e052                	sd	s4,0(sp)
    80002b48:	1800                	addi	s0,sp,48
  struct buf *b;

  initlock(&bcache.lock, "bcache");
    80002b4a:	00005597          	auipc	a1,0x5
    80002b4e:	97658593          	addi	a1,a1,-1674 # 800074c0 <userret+0x430>
    80002b52:	00015517          	auipc	a0,0x15
    80002b56:	9c650513          	addi	a0,a0,-1594 # 80017518 <bcache>
    80002b5a:	ffffe097          	auipc	ra,0xffffe
    80002b5e:	e56080e7          	jalr	-426(ra) # 800009b0 <initlock>

  // Create linked list of buffers
  bcache.head.prev = &bcache.head;
    80002b62:	0001d797          	auipc	a5,0x1d
    80002b66:	9b678793          	addi	a5,a5,-1610 # 8001f518 <bcache+0x8000>
    80002b6a:	0001d717          	auipc	a4,0x1d
    80002b6e:	d0670713          	addi	a4,a4,-762 # 8001f870 <bcache+0x8358>
    80002b72:	3ae7b023          	sd	a4,928(a5)
  bcache.head.next = &bcache.head;
    80002b76:	3ae7b423          	sd	a4,936(a5)
  for(b = bcache.buf; b < bcache.buf+NBUF; b++){
    80002b7a:	00015497          	auipc	s1,0x15
    80002b7e:	9b648493          	addi	s1,s1,-1610 # 80017530 <bcache+0x18>
    b->next = bcache.head.next;
    80002b82:	893e                	mv	s2,a5
    b->prev = &bcache.head;
    80002b84:	89ba                	mv	s3,a4
    initsleeplock(&b->lock, "buffer");
    80002b86:	00005a17          	auipc	s4,0x5
    80002b8a:	942a0a13          	addi	s4,s4,-1726 # 800074c8 <userret+0x438>
    b->next = bcache.head.next;
    80002b8e:	3a893783          	ld	a5,936(s2)
    80002b92:	e8bc                	sd	a5,80(s1)
    b->prev = &bcache.head;
    80002b94:	0534b423          	sd	s3,72(s1)
    initsleeplock(&b->lock, "buffer");
    80002b98:	85d2                	mv	a1,s4
    80002b9a:	01048513          	addi	a0,s1,16
    80002b9e:	00001097          	auipc	ra,0x1
    80002ba2:	6f6080e7          	jalr	1782(ra) # 80004294 <initsleeplock>
    bcache.head.next->prev = b;
    80002ba6:	3a893783          	ld	a5,936(s2)
    80002baa:	e7a4                	sd	s1,72(a5)
    bcache.head.next = b;
    80002bac:	3a993423          	sd	s1,936(s2)
  for(b = bcache.buf; b < bcache.buf+NBUF; b++){
    80002bb0:	46048493          	addi	s1,s1,1120
    80002bb4:	fd349de3          	bne	s1,s3,80002b8e <binit+0x54>
  }
}
    80002bb8:	70a2                	ld	ra,40(sp)
    80002bba:	7402                	ld	s0,32(sp)
    80002bbc:	64e2                	ld	s1,24(sp)
    80002bbe:	6942                	ld	s2,16(sp)
    80002bc0:	69a2                	ld	s3,8(sp)
    80002bc2:	6a02                	ld	s4,0(sp)
    80002bc4:	6145                	addi	sp,sp,48
    80002bc6:	8082                	ret

0000000080002bc8 <bread>:
}

// Return a locked buf with the contents of the indicated block.
struct buf*
bread(uint dev, uint blockno)
{
    80002bc8:	7179                	addi	sp,sp,-48
    80002bca:	f406                	sd	ra,40(sp)
    80002bcc:	f022                	sd	s0,32(sp)
    80002bce:	ec26                	sd	s1,24(sp)
    80002bd0:	e84a                	sd	s2,16(sp)
    80002bd2:	e44e                	sd	s3,8(sp)
    80002bd4:	1800                	addi	s0,sp,48
    80002bd6:	892a                	mv	s2,a0
    80002bd8:	89ae                	mv	s3,a1
  acquire(&bcache.lock);
    80002bda:	00015517          	auipc	a0,0x15
    80002bde:	93e50513          	addi	a0,a0,-1730 # 80017518 <bcache>
    80002be2:	ffffe097          	auipc	ra,0xffffe
    80002be6:	edc080e7          	jalr	-292(ra) # 80000abe <acquire>
  for(b = bcache.head.next; b != &bcache.head; b = b->next){
    80002bea:	0001d497          	auipc	s1,0x1d
    80002bee:	cd64b483          	ld	s1,-810(s1) # 8001f8c0 <bcache+0x83a8>
    80002bf2:	0001d797          	auipc	a5,0x1d
    80002bf6:	c7e78793          	addi	a5,a5,-898 # 8001f870 <bcache+0x8358>
    80002bfa:	02f48f63          	beq	s1,a5,80002c38 <bread+0x70>
    80002bfe:	873e                	mv	a4,a5
    80002c00:	a021                	j	80002c08 <bread+0x40>
    80002c02:	68a4                	ld	s1,80(s1)
    80002c04:	02e48a63          	beq	s1,a4,80002c38 <bread+0x70>
    if(b->dev == dev && b->blockno == blockno){
    80002c08:	449c                	lw	a5,8(s1)
    80002c0a:	ff279ce3          	bne	a5,s2,80002c02 <bread+0x3a>
    80002c0e:	44dc                	lw	a5,12(s1)
    80002c10:	ff3799e3          	bne	a5,s3,80002c02 <bread+0x3a>
      b->refcnt++;
    80002c14:	40bc                	lw	a5,64(s1)
    80002c16:	2785                	addiw	a5,a5,1
    80002c18:	c0bc                	sw	a5,64(s1)
      release(&bcache.lock);
    80002c1a:	00015517          	auipc	a0,0x15
    80002c1e:	8fe50513          	addi	a0,a0,-1794 # 80017518 <bcache>
    80002c22:	ffffe097          	auipc	ra,0xffffe
    80002c26:	f04080e7          	jalr	-252(ra) # 80000b26 <release>
      acquiresleep(&b->lock);
    80002c2a:	01048513          	addi	a0,s1,16
    80002c2e:	00001097          	auipc	ra,0x1
    80002c32:	6a0080e7          	jalr	1696(ra) # 800042ce <acquiresleep>
      return b;
    80002c36:	a8b9                	j	80002c94 <bread+0xcc>
  for(b = bcache.head.prev; b != &bcache.head; b = b->prev){
    80002c38:	0001d497          	auipc	s1,0x1d
    80002c3c:	c804b483          	ld	s1,-896(s1) # 8001f8b8 <bcache+0x83a0>
    80002c40:	0001d797          	auipc	a5,0x1d
    80002c44:	c3078793          	addi	a5,a5,-976 # 8001f870 <bcache+0x8358>
    80002c48:	00f48863          	beq	s1,a5,80002c58 <bread+0x90>
    80002c4c:	873e                	mv	a4,a5
    if(b->refcnt == 0) {
    80002c4e:	40bc                	lw	a5,64(s1)
